¹ LINE 		 HEX CMD 	 HEX PARAM 	 CMD 	 PARAM
00000001 	 00000013 	 00002D1E 	 call 	 gray
00000002 	 A0000003 	 00000000 	  pop 	 [0]
00000003 	 A0000003 	 00000001 	  pop 	 [1]
00000004 	 A0000003 	 00000002 	  pop 	 [2]
00000005 	 00000013 	 00002D17 	 call 	 black
00000006 	 A0000003 	 00000003 	  pop 	 [3]
00000007 	 A0000003 	 00000004 	  pop 	 [4]
00000008 	 A0000003 	 00000005 	  pop 	 [5]
00000009 	 00000013 	 00002D1E 	 call 	 gray
00000010 	 A0000003 	 00000006 	  pop 	 [6]
00000011 	 A0000003 	 00000007 	  pop 	 [7]
00000012 	 A0000003 	 00000008 	  pop 	 [8]
00000013 	 00000013 	 00002D17 	 call 	 black
00000014 	 A0000003 	 00000009 	  pop 	 [9]
00000015 	 A0000003 	 0000000A 	  pop 	 [10]
00000016 	 A0000003 	 0000000B 	  pop 	 [11]
00000017 	 00000013 	 00002D1E 	 call 	 gray
00000018 	 A0000003 	 0000000C 	  pop 	 [12]
00000019 	 A0000003 	 0000000D 	  pop 	 [13]
00000020 	 A0000003 	 0000000E 	  pop 	 [14]
00000021 	 00000013 	 00002D17 	 call 	 black
00000022 	 A0000003 	 0000000F 	  pop 	 [15]
00000023 	 A0000003 	 00000010 	  pop 	 [16]
00000024 	 A0000003 	 00000011 	  pop 	 [17]
00000025 	 00000013 	 00002D1E 	 call 	 gray
00000026 	 A0000003 	 00000012 	  pop 	 [18]
00000027 	 A0000003 	 00000013 	  pop 	 [19]
00000028 	 A0000003 	 00000014 	  pop 	 [20]
00000029 	 00000013 	 00002D17 	 call 	 black
00000030 	 A0000003 	 00000015 	  pop 	 [21]
00000031 	 A0000003 	 00000016 	  pop 	 [22]
00000032 	 A0000003 	 00000017 	  pop 	 [23]
00000033 	 00000013 	 00002D1E 	 call 	 gray
00000034 	 A0000003 	 00000018 	  pop 	 [24]
00000035 	 A0000003 	 00000019 	  pop 	 [25]
00000036 	 A0000003 	 0000001A 	  pop 	 [26]
00000037 	 00000013 	 00002D17 	 call 	 black
00000038 	 A0000003 	 0000001B 	  pop 	 [27]
00000039 	 A0000003 	 0000001C 	  pop 	 [28]
00000040 	 A0000003 	 0000001D 	  pop 	 [29]
00000041 	 00000013 	 00002D1E 	 call 	 gray
00000042 	 A0000003 	 0000001E 	  pop 	 [30]
00000043 	 A0000003 	 0000001F 	  pop 	 [31]
00000044 	 A0000003 	 00000020 	  pop 	 [32]
00000045 	 00000013 	 00002D17 	 call 	 black
00000046 	 A0000003 	 00000021 	  pop 	 [33]
00000047 	 A0000003 	 00000022 	  pop 	 [34]
00000048 	 A0000003 	 00000023 	  pop 	 [35]
00000049 	 00000013 	 00002D1E 	 call 	 gray
00000050 	 A0000003 	 00000024 	  pop 	 [36]
00000051 	 A0000003 	 00000025 	  pop 	 [37]
00000052 	 A0000003 	 00000026 	  pop 	 [38]
00000053 	 00000013 	 00002D17 	 call 	 black
00000054 	 A0000003 	 00000027 	  pop 	 [39]
00000055 	 A0000003 	 00000028 	  pop 	 [40]
00000056 	 A0000003 	 00000029 	  pop 	 [41]
00000057 	 00000013 	 00002D1E 	 call 	 gray
00000058 	 A0000003 	 0000002A 	  pop 	 [42]
00000059 	 A0000003 	 0000002B 	  pop 	 [43]
00000060 	 A0000003 	 0000002C 	  pop 	 [44]
00000061 	 00000013 	 00002D17 	 call 	 black
00000062 	 A0000003 	 0000002D 	  pop 	 [45]
00000063 	 A0000003 	 0000002E 	  pop 	 [46]
00000064 	 A0000003 	 0000002F 	  pop 	 [47]
00000065 	 00000013 	 00002D1E 	 call 	 gray
00000066 	 A0000003 	 00000030 	  pop 	 [48]
00000067 	 A0000003 	 00000031 	  pop 	 [49]
00000068 	 A0000003 	 00000032 	  pop 	 [50]
00000069 	 00000013 	 00002D17 	 call 	 black
00000070 	 A0000003 	 00000033 	  pop 	 [51]
00000071 	 A0000003 	 00000034 	  pop 	 [52]
00000072 	 A0000003 	 00000035 	  pop 	 [53]
00000073 	 00000013 	 00002D1E 	 call 	 gray
00000074 	 A0000003 	 00000036 	  pop 	 [54]
00000075 	 A0000003 	 00000037 	  pop 	 [55]
00000076 	 A0000003 	 00000038 	  pop 	 [56]
00000077 	 00000013 	 00002D17 	 call 	 black
00000078 	 A0000003 	 00000039 	  pop 	 [57]
00000079 	 A0000003 	 0000003A 	  pop 	 [58]
00000080 	 A0000003 	 0000003B 	  pop 	 [59]
00000081 	 00000013 	 00002D1E 	 call 	 gray
00000082 	 A0000003 	 0000003C 	  pop 	 [60]
00000083 	 A0000003 	 0000003D 	  pop 	 [61]
00000084 	 A0000003 	 0000003E 	  pop 	 [62]
00000085 	 00000013 	 00002D17 	 call 	 black
00000086 	 A0000003 	 0000003F 	  pop 	 [63]
00000087 	 A0000003 	 00000040 	  pop 	 [64]
00000088 	 A0000003 	 00000041 	  pop 	 [65]
00000089 	 00000013 	 00002D1E 	 call 	 gray
00000090 	 A0000003 	 00000042 	  pop 	 [66]
00000091 	 A0000003 	 00000043 	  pop 	 [67]
00000092 	 A0000003 	 00000044 	  pop 	 [68]
00000093 	 00000013 	 00002D17 	 call 	 black
00000094 	 A0000003 	 00000045 	  pop 	 [69]
00000095 	 A0000003 	 00000046 	  pop 	 [70]
00000096 	 A0000003 	 00000047 	  pop 	 [71]
00000097 	 00000013 	 00002D1E 	 call 	 gray
00000098 	 A0000003 	 00000048 	  pop 	 [72]
00000099 	 A0000003 	 00000049 	  pop 	 [73]
00000100 	 A0000003 	 0000004A 	  pop 	 [74]
00000101 	 00000013 	 00002D17 	 call 	 black
00000102 	 A0000003 	 0000004B 	  pop 	 [75]
00000103 	 A0000003 	 0000004C 	  pop 	 [76]
00000104 	 A0000003 	 0000004D 	  pop 	 [77]
00000105 	 00000013 	 00002D1E 	 call 	 gray
00000106 	 A0000003 	 0000004E 	  pop 	 [78]
00000107 	 A0000003 	 0000004F 	  pop 	 [79]
00000108 	 A0000003 	 00000050 	  pop 	 [80]
00000109 	 00000013 	 00002D17 	 call 	 black
00000110 	 A0000003 	 00000051 	  pop 	 [81]
00000111 	 A0000003 	 00000052 	  pop 	 [82]
00000112 	 A0000003 	 00000053 	  pop 	 [83]
00000113 	 00000013 	 00002D1E 	 call 	 gray
00000114 	 A0000003 	 00000054 	  pop 	 [84]
00000115 	 A0000003 	 00000055 	  pop 	 [85]
00000116 	 A0000003 	 00000056 	  pop 	 [86]
00000117 	 00000013 	 00002D17 	 call 	 black
00000118 	 A0000003 	 00000057 	  pop 	 [87]
00000119 	 A0000003 	 00000058 	  pop 	 [88]
00000120 	 A0000003 	 00000059 	  pop 	 [89]
00000121 	 00000013 	 00002D1E 	 call 	 gray
00000122 	 A0000003 	 0000005A 	  pop 	 [90]
00000123 	 A0000003 	 0000005B 	  pop 	 [91]
00000124 	 A0000003 	 0000005C 	  pop 	 [92]
00000125 	 00000013 	 00002D17 	 call 	 black
00000126 	 A0000003 	 0000005D 	  pop 	 [93]
00000127 	 A0000003 	 0000005E 	  pop 	 [94]
00000128 	 A0000003 	 0000005F 	  pop 	 [95]
00000129 	 00000013 	 00002D1E 	 call 	 gray
00000130 	 A0000003 	 00000060 	  pop 	 [96]
00000131 	 A0000003 	 00000061 	  pop 	 [97]
00000132 	 A0000003 	 00000062 	  pop 	 [98]
00000133 	 00000013 	 00002D17 	 call 	 black
00000134 	 A0000003 	 00000063 	  pop 	 [99]
00000135 	 A0000003 	 00000064 	  pop 	 [100]
00000136 	 A0000003 	 00000065 	  pop 	 [101]
00000137 	 00000013 	 00002D1E 	 call 	 gray
00000138 	 A0000003 	 00000066 	  pop 	 [102]
00000139 	 A0000003 	 00000067 	  pop 	 [103]
00000140 	 A0000003 	 00000068 	  pop 	 [104]
00000141 	 00000013 	 00002D17 	 call 	 black
00000142 	 A0000003 	 00000069 	  pop 	 [105]
00000143 	 A0000003 	 0000006A 	  pop 	 [106]
00000144 	 A0000003 	 0000006B 	  pop 	 [107]
00000145 	 00000013 	 00002D1E 	 call 	 gray
00000146 	 A0000003 	 0000006C 	  pop 	 [108]
00000147 	 A0000003 	 0000006D 	  pop 	 [109]
00000148 	 A0000003 	 0000006E 	  pop 	 [110]
00000149 	 00000013 	 00002D17 	 call 	 black
00000150 	 A0000003 	 0000006F 	  pop 	 [111]
00000151 	 A0000003 	 00000070 	  pop 	 [112]
00000152 	 A0000003 	 00000071 	  pop 	 [113]
00000153 	 00000013 	 00002D1E 	 call 	 gray
00000154 	 A0000003 	 00000072 	  pop 	 [114]
00000155 	 A0000003 	 00000073 	  pop 	 [115]
00000156 	 A0000003 	 00000074 	  pop 	 [116]
00000157 	 00000013 	 00002D17 	 call 	 black
00000158 	 A0000003 	 00000075 	  pop 	 [117]
00000159 	 A0000003 	 00000076 	  pop 	 [118]
00000160 	 A0000003 	 00000077 	  pop 	 [119]
00000161 	 00000013 	 00002D1E 	 call 	 gray
00000162 	 A0000003 	 00000078 	  pop 	 [120]
00000163 	 A0000003 	 00000079 	  pop 	 [121]
00000164 	 A0000003 	 0000007A 	  pop 	 [122]
00000165 	 00000013 	 00002D17 	 call 	 black
00000166 	 A0000003 	 0000007B 	  pop 	 [123]
00000167 	 A0000003 	 0000007C 	  pop 	 [124]
00000168 	 A0000003 	 0000007D 	  pop 	 [125]
00000169 	 00000013 	 00002D1E 	 call 	 gray
00000170 	 A0000003 	 0000007E 	  pop 	 [126]
00000171 	 A0000003 	 0000007F 	  pop 	 [127]
00000172 	 A0000003 	 00000080 	  pop 	 [128]
00000173 	 00000013 	 00002D17 	 call 	 black
00000174 	 A0000003 	 00000081 	  pop 	 [129]
00000175 	 A0000003 	 00000082 	  pop 	 [130]
00000176 	 A0000003 	 00000083 	  pop 	 [131]
00000177 	 00000013 	 00002D1E 	 call 	 gray
00000178 	 A0000003 	 00000084 	  pop 	 [132]
00000179 	 A0000003 	 00000085 	  pop 	 [133]
00000180 	 A0000003 	 00000086 	  pop 	 [134]
00000181 	 00000013 	 00002D17 	 call 	 black
00000182 	 A0000003 	 00000087 	  pop 	 [135]
00000183 	 A0000003 	 00000088 	  pop 	 [136]
00000184 	 A0000003 	 00000089 	  pop 	 [137]
00000185 	 00000013 	 00002D1E 	 call 	 gray
00000186 	 A0000003 	 0000008A 	  pop 	 [138]
00000187 	 A0000003 	 0000008B 	  pop 	 [139]
00000188 	 A0000003 	 0000008C 	  pop 	 [140]
00000189 	 00000013 	 00002D17 	 call 	 black
00000190 	 A0000003 	 0000008D 	  pop 	 [141]
00000191 	 A0000003 	 0000008E 	  pop 	 [142]
00000192 	 A0000003 	 0000008F 	  pop 	 [143]
00000193 	 00000013 	 00002D1E 	 call 	 gray
00000194 	 A0000003 	 00000090 	  pop 	 [144]
00000195 	 A0000003 	 00000091 	  pop 	 [145]
00000196 	 A0000003 	 00000092 	  pop 	 [146]
00000197 	 00000013 	 00002D17 	 call 	 black
00000198 	 A0000003 	 00000093 	  pop 	 [147]
00000199 	 A0000003 	 00000094 	  pop 	 [148]
00000200 	 A0000003 	 00000095 	  pop 	 [149]
00000201 	 00000013 	 00002D1E 	 call 	 gray
00000202 	 A0000003 	 00000096 	  pop 	 [150]
00000203 	 A0000003 	 00000097 	  pop 	 [151]
00000204 	 A0000003 	 00000098 	  pop 	 [152]
00000205 	 00000013 	 00002D17 	 call 	 black
00000206 	 A0000003 	 00000099 	  pop 	 [153]
00000207 	 A0000003 	 0000009A 	  pop 	 [154]
00000208 	 A0000003 	 0000009B 	  pop 	 [155]
00000209 	 00000013 	 00002D1E 	 call 	 gray
00000210 	 A0000003 	 0000009C 	  pop 	 [156]
00000211 	 A0000003 	 0000009D 	  pop 	 [157]
00000212 	 A0000003 	 0000009E 	  pop 	 [158]
00000213 	 00000013 	 00002D17 	 call 	 black
00000214 	 A0000003 	 0000009F 	  pop 	 [159]
00000215 	 A0000003 	 000000A0 	  pop 	 [160]
00000216 	 A0000003 	 000000A1 	  pop 	 [161]
00000217 	 00000013 	 00002D1E 	 call 	 gray
00000218 	 A0000003 	 000000A2 	  pop 	 [162]
00000219 	 A0000003 	 000000A3 	  pop 	 [163]
00000220 	 A0000003 	 000000A4 	  pop 	 [164]
00000221 	 00000013 	 00002D17 	 call 	 black
00000222 	 A0000003 	 000000A5 	  pop 	 [165]
00000223 	 A0000003 	 000000A6 	  pop 	 [166]
00000224 	 A0000003 	 000000A7 	  pop 	 [167]
00000225 	 00000013 	 00002D1E 	 call 	 gray
00000226 	 A0000003 	 000000A8 	  pop 	 [168]
00000227 	 A0000003 	 000000A9 	  pop 	 [169]
00000228 	 A0000003 	 000000AA 	  pop 	 [170]
00000229 	 00000013 	 00002D17 	 call 	 black
00000230 	 A0000003 	 000000AB 	  pop 	 [171]
00000231 	 A0000003 	 000000AC 	  pop 	 [172]
00000232 	 A0000003 	 000000AD 	  pop 	 [173]
00000233 	 00000013 	 00002D1E 	 call 	 gray
00000234 	 A0000003 	 000000AE 	  pop 	 [174]
00000235 	 A0000003 	 000000AF 	  pop 	 [175]
00000236 	 A0000003 	 000000B0 	  pop 	 [176]
00000237 	 00000013 	 00002D17 	 call 	 black
00000238 	 A0000003 	 000000B1 	  pop 	 [177]
00000239 	 A0000003 	 000000B2 	  pop 	 [178]
00000240 	 A0000003 	 000000B3 	  pop 	 [179]
00000241 	 00000013 	 00002D1E 	 call 	 gray
00000242 	 A0000003 	 000000B4 	  pop 	 [180]
00000243 	 A0000003 	 000000B5 	  pop 	 [181]
00000244 	 A0000003 	 000000B6 	  pop 	 [182]
00000245 	 00000013 	 00002D17 	 call 	 black
00000246 	 A0000003 	 000000B7 	  pop 	 [183]
00000247 	 A0000003 	 000000B8 	  pop 	 [184]
00000248 	 A0000003 	 000000B9 	  pop 	 [185]
00000249 	 00000013 	 00002D1E 	 call 	 gray
00000250 	 A0000003 	 000000BA 	  pop 	 [186]
00000251 	 A0000003 	 000000BB 	  pop 	 [187]
00000252 	 A0000003 	 000000BC 	  pop 	 [188]
00000253 	 00000013 	 00002D17 	 call 	 black
00000254 	 A0000003 	 000000BD 	  pop 	 [189]
00000255 	 A0000003 	 000000BE 	  pop 	 [190]
00000256 	 A0000003 	 000000BF 	  pop 	 [191]
00000257 	 00000013 	 00002D1E 	 call 	 gray
00000258 	 A0000003 	 000000C0 	  pop 	 [192]
00000259 	 A0000003 	 000000C1 	  pop 	 [193]
00000260 	 A0000003 	 000000C2 	  pop 	 [194]
00000261 	 00000013 	 00002D17 	 call 	 black
00000262 	 A0000003 	 000000C3 	  pop 	 [195]
00000263 	 A0000003 	 000000C4 	  pop 	 [196]
00000264 	 A0000003 	 000000C5 	  pop 	 [197]
00000265 	 00000013 	 00002D1E 	 call 	 gray
00000266 	 A0000003 	 000000C6 	  pop 	 [198]
00000267 	 A0000003 	 000000C7 	  pop 	 [199]
00000268 	 A0000003 	 000000C8 	  pop 	 [200]
00000269 	 00000013 	 00002D17 	 call 	 black
00000270 	 A0000003 	 000000C9 	  pop 	 [201]
00000271 	 A0000003 	 000000CA 	  pop 	 [202]
00000272 	 A0000003 	 000000CB 	  pop 	 [203]
00000273 	 00000013 	 00002D1E 	 call 	 gray
00000274 	 A0000003 	 000000CC 	  pop 	 [204]
00000275 	 A0000003 	 000000CD 	  pop 	 [205]
00000276 	 A0000003 	 000000CE 	  pop 	 [206]
00000277 	 00000013 	 00002D17 	 call 	 black
00000278 	 A0000003 	 000000CF 	  pop 	 [207]
00000279 	 A0000003 	 000000D0 	  pop 	 [208]
00000280 	 A0000003 	 000000D1 	  pop 	 [209]
00000281 	 00000013 	 00002D1E 	 call 	 gray
00000282 	 A0000003 	 000000D2 	  pop 	 [210]
00000283 	 A0000003 	 000000D3 	  pop 	 [211]
00000284 	 A0000003 	 000000D4 	  pop 	 [212]
00000285 	 00000013 	 00002D17 	 call 	 black
00000286 	 A0000003 	 000000D5 	  pop 	 [213]
00000287 	 A0000003 	 000000D6 	  pop 	 [214]
00000288 	 A0000003 	 000000D7 	  pop 	 [215]
00000289 	 00000013 	 00002CCA 	 call 	 red
00000290 	 A0000003 	 000000D8 	  pop 	 [216]
00000291 	 A0000003 	 000000D9 	  pop 	 [217]
00000292 	 A0000003 	 000000DA 	  pop 	 [218]
00000293 	 00000013 	 00002CCA 	 call 	 red
00000294 	 A0000003 	 000000DB 	  pop 	 [219]
00000295 	 A0000003 	 000000DC 	  pop 	 [220]
00000296 	 A0000003 	 000000DD 	  pop 	 [221]
00000297 	 00000013 	 00002CCA 	 call 	 red
00000298 	 A0000003 	 000000DE 	  pop 	 [222]
00000299 	 A0000003 	 000000DF 	  pop 	 [223]
00000300 	 A0000003 	 000000E0 	  pop 	 [224]
00000301 	 00000013 	 00002CCA 	 call 	 red
00000302 	 A0000003 	 000000E1 	  pop 	 [225]
00000303 	 A0000003 	 000000E2 	  pop 	 [226]
00000304 	 A0000003 	 000000E3 	  pop 	 [227]
00000305 	 00000013 	 00002CCA 	 call 	 red
00000306 	 A0000003 	 000000E4 	  pop 	 [228]
00000307 	 A0000003 	 000000E5 	  pop 	 [229]
00000308 	 A0000003 	 000000E6 	  pop 	 [230]
00000309 	 00000013 	 00002D17 	 call 	 black
00000310 	 A0000003 	 000000E7 	  pop 	 [231]
00000311 	 A0000003 	 000000E8 	  pop 	 [232]
00000312 	 A0000003 	 000000E9 	  pop 	 [233]
00000313 	 00000013 	 00002D1E 	 call 	 gray
00000314 	 A0000003 	 000000EA 	  pop 	 [234]
00000315 	 A0000003 	 000000EB 	  pop 	 [235]
00000316 	 A0000003 	 000000EC 	  pop 	 [236]
00000317 	 00000013 	 00002D17 	 call 	 black
00000318 	 A0000003 	 000000ED 	  pop 	 [237]
00000319 	 A0000003 	 000000EE 	  pop 	 [238]
00000320 	 A0000003 	 000000EF 	  pop 	 [239]
00000321 	 00000013 	 00002CCA 	 call 	 red
00000322 	 A0000003 	 000000F0 	  pop 	 [240]
00000323 	 A0000003 	 000000F1 	  pop 	 [241]
00000324 	 A0000003 	 000000F2 	  pop 	 [242]
00000325 	 00000013 	 00002CCA 	 call 	 red
00000326 	 A0000003 	 000000F3 	  pop 	 [243]
00000327 	 A0000003 	 000000F4 	  pop 	 [244]
00000328 	 A0000003 	 000000F5 	  pop 	 [245]
00000329 	 00000013 	 00002CCA 	 call 	 red
00000330 	 A0000003 	 000000F6 	  pop 	 [246]
00000331 	 A0000003 	 000000F7 	  pop 	 [247]
00000332 	 A0000003 	 000000F8 	  pop 	 [248]
00000333 	 00000013 	 00002CCA 	 call 	 red
00000334 	 A0000003 	 000000F9 	  pop 	 [249]
00000335 	 A0000003 	 000000FA 	  pop 	 [250]
00000336 	 A0000003 	 000000FB 	  pop 	 [251]
00000337 	 00000013 	 00002CCA 	 call 	 red
00000338 	 A0000003 	 000000FC 	  pop 	 [252]
00000339 	 A0000003 	 000000FD 	  pop 	 [253]
00000340 	 A0000003 	 000000FE 	  pop 	 [254]
00000341 	 00000013 	 00002CCA 	 call 	 red
00000342 	 A0000003 	 000000FF 	  pop 	 [255]
00000343 	 A0000003 	 00000100 	  pop 	 [256]
00000344 	 A0000003 	 00000101 	  pop 	 [257]
00000345 	 00000013 	 00002CCA 	 call 	 red
00000346 	 A0000003 	 00000102 	  pop 	 [258]
00000347 	 A0000003 	 00000103 	  pop 	 [259]
00000348 	 A0000003 	 00000104 	  pop 	 [260]
00000349 	 00000013 	 00002CCA 	 call 	 red
00000350 	 A0000003 	 00000105 	  pop 	 [261]
00000351 	 A0000003 	 00000106 	  pop 	 [262]
00000352 	 A0000003 	 00000107 	  pop 	 [263]
00000353 	 00000013 	 00002CCA 	 call 	 red
00000354 	 A0000003 	 00000108 	  pop 	 [264]
00000355 	 A0000003 	 00000109 	  pop 	 [265]
00000356 	 A0000003 	 0000010A 	  pop 	 [266]
00000357 	 00000013 	 00002D17 	 call 	 black
00000358 	 A0000003 	 0000010B 	  pop 	 [267]
00000359 	 A0000003 	 0000010C 	  pop 	 [268]
00000360 	 A0000003 	 0000010D 	  pop 	 [269]
00000361 	 00000013 	 00002D1E 	 call 	 gray
00000362 	 A0000003 	 0000010E 	  pop 	 [270]
00000363 	 A0000003 	 0000010F 	  pop 	 [271]
00000364 	 A0000003 	 00000110 	  pop 	 [272]
00000365 	 00000013 	 00002D17 	 call 	 black
00000366 	 A0000003 	 00000111 	  pop 	 [273]
00000367 	 A0000003 	 00000112 	  pop 	 [274]
00000368 	 A0000003 	 00000113 	  pop 	 [275]
00000369 	 00000013 	 00002D1E 	 call 	 gray
00000370 	 A0000003 	 00000114 	  pop 	 [276]
00000371 	 A0000003 	 00000115 	  pop 	 [277]
00000372 	 A0000003 	 00000116 	  pop 	 [278]
00000373 	 00000013 	 00002D17 	 call 	 black
00000374 	 A0000003 	 00000117 	  pop 	 [279]
00000375 	 A0000003 	 00000118 	  pop 	 [280]
00000376 	 A0000003 	 00000119 	  pop 	 [281]
00000377 	 00000013 	 00002D1E 	 call 	 gray
00000378 	 A0000003 	 0000011A 	  pop 	 [282]
00000379 	 A0000003 	 0000011B 	  pop 	 [283]
00000380 	 A0000003 	 0000011C 	  pop 	 [284]
00000381 	 00000013 	 00002D17 	 call 	 black
00000382 	 A0000003 	 0000011D 	  pop 	 [285]
00000383 	 A0000003 	 0000011E 	  pop 	 [286]
00000384 	 A0000003 	 0000011F 	  pop 	 [287]
00000385 	 00000013 	 00002CCA 	 call 	 red
00000386 	 A0000003 	 00000138 	  pop 	 [312]
00000387 	 A0000003 	 00000139 	  pop 	 [313]
00000388 	 A0000003 	 0000013A 	  pop 	 [314]
00000389 	 00000013 	 00002CCA 	 call 	 red
00000390 	 A0000003 	 00000147 	  pop 	 [327]
00000391 	 A0000003 	 00000148 	  pop 	 [328]
00000392 	 A0000003 	 00000149 	  pop 	 [329]
00000393 	 00000013 	 00002CCA 	 call 	 red
00000394 	 A0000003 	 0000015C 	  pop 	 [348]
00000395 	 A0000003 	 0000015D 	  pop 	 [349]
00000396 	 A0000003 	 0000015E 	  pop 	 [350]
00000397 	 00000013 	 00002CCA 	 call 	 red
00000398 	 A0000003 	 000001BC 	  pop 	 [444]
00000399 	 A0000003 	 000001BD 	  pop 	 [445]
00000400 	 A0000003 	 000001BE 	  pop 	 [446]
00000401 	 00000013 	 00002CCA 	 call 	 red
00000402 	 A0000003 	 0000021C 	  pop 	 [540]
00000403 	 A0000003 	 0000021D 	  pop 	 [541]
00000404 	 A0000003 	 0000021E 	  pop 	 [542]
00000405 	 00000013 	 00002CCA 	 call 	 red
00000406 	 A0000003 	 0000027C 	  pop 	 [636]
00000407 	 A0000003 	 0000027D 	  pop 	 [637]
00000408 	 A0000003 	 0000027E 	  pop 	 [638]
00000409 	 00000013 	 00002CCA 	 call 	 red
00000410 	 A0000003 	 000002DC 	  pop 	 [732]
00000411 	 A0000003 	 000002DD 	  pop 	 [733]
00000412 	 A0000003 	 000002DE 	  pop 	 [734]
00000413 	 00000013 	 00002CCA 	 call 	 red
00000414 	 A0000003 	 0000033C 	  pop 	 [828]
00000415 	 A0000003 	 0000033D 	  pop 	 [829]
00000416 	 A0000003 	 0000033E 	  pop 	 [830]
00000417 	 00000013 	 00002CCA 	 call 	 red
00000418 	 A0000003 	 0000039C 	  pop 	 [924]
00000419 	 A0000003 	 0000039D 	  pop 	 [925]
00000420 	 A0000003 	 0000039E 	  pop 	 [926]
00000421 	 00000013 	 00002CCA 	 call 	 red
00000422 	 A0000003 	 000003FC 	  pop 	 [1020]
00000423 	 A0000003 	 000003FD 	  pop 	 [1021]
00000424 	 A0000003 	 000003FE 	  pop 	 [1022]
00000425 	 00000013 	 00002CCA 	 call 	 red
00000426 	 A0000003 	 0000045C 	  pop 	 [1116]
00000427 	 A0000003 	 0000045D 	  pop 	 [1117]
00000428 	 A0000003 	 0000045E 	  pop 	 [1118]
00000429 	 00000013 	 00002CCA 	 call 	 red
00000430 	 A0000003 	 000004BC 	  pop 	 [1212]
00000431 	 A0000003 	 000004BD 	  pop 	 [1213]
00000432 	 A0000003 	 000004BE 	  pop 	 [1214]
00000433 	 00000013 	 00002CCA 	 call 	 red
00000434 	 A0000003 	 0000051C 	  pop 	 [1308]
00000435 	 A0000003 	 0000051D 	  pop 	 [1309]
00000436 	 A0000003 	 0000051E 	  pop 	 [1310]
00000437 	 00000013 	 00002CCA 	 call 	 red
00000438 	 A0000003 	 0000057C 	  pop 	 [1404]
00000439 	 A0000003 	 0000057D 	  pop 	 [1405]
00000440 	 A0000003 	 0000057E 	  pop 	 [1406]
00000441 	 00000013 	 00002CCA 	 call 	 red
00000442 	 A0000003 	 000005DC 	  pop 	 [1500]
00000443 	 A0000003 	 000005DD 	  pop 	 [1501]
00000444 	 A0000003 	 000005DE 	  pop 	 [1502]
00000445 	 00000013 	 00002CCA 	 call 	 red
00000446 	 A0000003 	 00000198 	  pop 	 [408]
00000447 	 A0000003 	 00000199 	  pop 	 [409]
00000448 	 A0000003 	 0000019A 	  pop 	 [410]
00000449 	 00000013 	 00002CCA 	 call 	 red
00000450 	 A0000003 	 000001A7 	  pop 	 [423]
00000451 	 A0000003 	 000001A8 	  pop 	 [424]
00000452 	 A0000003 	 000001A9 	  pop 	 [425]
00000453 	 00000013 	 00002CCA 	 call 	 red
00000454 	 A0000003 	 000001F8 	  pop 	 [504]
00000455 	 A0000003 	 000001F9 	  pop 	 [505]
00000456 	 A0000003 	 000001FA 	  pop 	 [506]
00000457 	 00000013 	 00002CCA 	 call 	 red
00000458 	 A0000003 	 00000207 	  pop 	 [519]
00000459 	 A0000003 	 00000208 	  pop 	 [520]
00000460 	 A0000003 	 00000209 	  pop 	 [521]
00000461 	 00000013 	 00002CCA 	 call 	 red
00000462 	 A0000003 	 00000258 	  pop 	 [600]
00000463 	 A0000003 	 00000259 	  pop 	 [601]
00000464 	 A0000003 	 0000025A 	  pop 	 [602]
00000465 	 00000013 	 00002CCA 	 call 	 red
00000466 	 A0000003 	 00000267 	  pop 	 [615]
00000467 	 A0000003 	 00000268 	  pop 	 [616]
00000468 	 A0000003 	 00000269 	  pop 	 [617]
00000469 	 00000013 	 00002CCA 	 call 	 red
00000470 	 A0000003 	 000002B8 	  pop 	 [696]
00000471 	 A0000003 	 000002B9 	  pop 	 [697]
00000472 	 A0000003 	 000002BA 	  pop 	 [698]
00000473 	 00000013 	 00002CCA 	 call 	 red
00000474 	 A0000003 	 000002BB 	  pop 	 [699]
00000475 	 A0000003 	 000002BC 	  pop 	 [700]
00000476 	 A0000003 	 000002BD 	  pop 	 [701]
00000477 	 00000013 	 00002CCA 	 call 	 red
00000478 	 A0000003 	 000002BE 	  pop 	 [702]
00000479 	 A0000003 	 000002BF 	  pop 	 [703]
00000480 	 A0000003 	 000002C0 	  pop 	 [704]
00000481 	 00000013 	 00002CCA 	 call 	 red
00000482 	 A0000003 	 000002C1 	  pop 	 [705]
00000483 	 A0000003 	 000002C2 	  pop 	 [706]
00000484 	 A0000003 	 000002C3 	  pop 	 [707]
00000485 	 00000013 	 00002CCA 	 call 	 red
00000486 	 A0000003 	 000002C4 	  pop 	 [708]
00000487 	 A0000003 	 000002C5 	  pop 	 [709]
00000488 	 A0000003 	 000002C6 	  pop 	 [710]
00000489 	 00000013 	 00002CCA 	 call 	 red
00000490 	 A0000003 	 00000318 	  pop 	 [792]
00000491 	 A0000003 	 00000319 	  pop 	 [793]
00000492 	 A0000003 	 0000031A 	  pop 	 [794]
00000493 	 00000013 	 00002CCA 	 call 	 red
00000494 	 A0000003 	 00000378 	  pop 	 [888]
00000495 	 A0000003 	 00000379 	  pop 	 [889]
00000496 	 A0000003 	 0000037A 	  pop 	 [890]
00000497 	 00000013 	 00002CCA 	 call 	 red
00000498 	 A0000003 	 000003D8 	  pop 	 [984]
00000499 	 A0000003 	 000003D9 	  pop 	 [985]
00000500 	 A0000003 	 000003DA 	  pop 	 [986]
00000501 	 00000013 	 00002CCA 	 call 	 red
00000502 	 A0000003 	 00000438 	  pop 	 [1080]
00000503 	 A0000003 	 00000439 	  pop 	 [1081]
00000504 	 A0000003 	 0000043A 	  pop 	 [1082]
00000505 	 00000013 	 00002CCA 	 call 	 red
00000506 	 A0000003 	 00000498 	  pop 	 [1176]
00000507 	 A0000003 	 00000499 	  pop 	 [1177]
00000508 	 A0000003 	 0000049A 	  pop 	 [1178]
00000509 	 00000013 	 00002CCA 	 call 	 red
00000510 	 A0000003 	 000004F8 	  pop 	 [1272]
00000511 	 A0000003 	 000004F9 	  pop 	 [1273]
00000512 	 A0000003 	 000004FA 	  pop 	 [1274]
00000513 	 00000013 	 00002CCA 	 call 	 red
00000514 	 A0000003 	 00000558 	  pop 	 [1368]
00000515 	 A0000003 	 00000559 	  pop 	 [1369]
00000516 	 A0000003 	 0000055A 	  pop 	 [1370]
00000517 	 00000013 	 00002CCA 	 call 	 red
00000518 	 A0000003 	 000005B8 	  pop 	 [1464]
00000519 	 A0000003 	 000005B9 	  pop 	 [1465]
00000520 	 A0000003 	 000005BA 	  pop 	 [1466]
00000521 	 00000016 	          	 scan
00000522 	 00000017 	          	 draw
00000523 	 00000013 	 00002D1E 	 call 	 gray
00000524 	 A0000003 	 00000000 	  pop 	 [0]
00000525 	 A0000003 	 00000001 	  pop 	 [1]
00000526 	 A0000003 	 00000002 	  pop 	 [2]
00000527 	 00000013 	 00002D17 	 call 	 black
00000528 	 A0000003 	 00000003 	  pop 	 [3]
00000529 	 A0000003 	 00000004 	  pop 	 [4]
00000530 	 A0000003 	 00000005 	  pop 	 [5]
00000531 	 00000013 	 00002D1E 	 call 	 gray
00000532 	 A0000003 	 00000006 	  pop 	 [6]
00000533 	 A0000003 	 00000007 	  pop 	 [7]
00000534 	 A0000003 	 00000008 	  pop 	 [8]
00000535 	 00000013 	 00002D17 	 call 	 black
00000536 	 A0000003 	 00000009 	  pop 	 [9]
00000537 	 A0000003 	 0000000A 	  pop 	 [10]
00000538 	 A0000003 	 0000000B 	  pop 	 [11]
00000539 	 00000013 	 00002D1E 	 call 	 gray
00000540 	 A0000003 	 0000000C 	  pop 	 [12]
00000541 	 A0000003 	 0000000D 	  pop 	 [13]
00000542 	 A0000003 	 0000000E 	  pop 	 [14]
00000543 	 00000013 	 00002D17 	 call 	 black
00000544 	 A0000003 	 0000000F 	  pop 	 [15]
00000545 	 A0000003 	 00000010 	  pop 	 [16]
00000546 	 A0000003 	 00000011 	  pop 	 [17]
00000547 	 00000013 	 00002D1E 	 call 	 gray
00000548 	 A0000003 	 00000012 	  pop 	 [18]
00000549 	 A0000003 	 00000013 	  pop 	 [19]
00000550 	 A0000003 	 00000014 	  pop 	 [20]
00000551 	 00000013 	 00002D17 	 call 	 black
00000552 	 A0000003 	 00000015 	  pop 	 [21]
00000553 	 A0000003 	 00000016 	  pop 	 [22]
00000554 	 A0000003 	 00000017 	  pop 	 [23]
00000555 	 00000013 	 00002D1E 	 call 	 gray
00000556 	 A0000003 	 00000018 	  pop 	 [24]
00000557 	 A0000003 	 00000019 	  pop 	 [25]
00000558 	 A0000003 	 0000001A 	  pop 	 [26]
00000559 	 00000013 	 00002D17 	 call 	 black
00000560 	 A0000003 	 0000001B 	  pop 	 [27]
00000561 	 A0000003 	 0000001C 	  pop 	 [28]
00000562 	 A0000003 	 0000001D 	  pop 	 [29]
00000563 	 00000013 	 00002D1E 	 call 	 gray
00000564 	 A0000003 	 0000001E 	  pop 	 [30]
00000565 	 A0000003 	 0000001F 	  pop 	 [31]
00000566 	 A0000003 	 00000020 	  pop 	 [32]
00000567 	 00000013 	 00002D17 	 call 	 black
00000568 	 A0000003 	 00000021 	  pop 	 [33]
00000569 	 A0000003 	 00000022 	  pop 	 [34]
00000570 	 A0000003 	 00000023 	  pop 	 [35]
00000571 	 00000013 	 00002D1E 	 call 	 gray
00000572 	 A0000003 	 00000024 	  pop 	 [36]
00000573 	 A0000003 	 00000025 	  pop 	 [37]
00000574 	 A0000003 	 00000026 	  pop 	 [38]
00000575 	 00000013 	 00002D17 	 call 	 black
00000576 	 A0000003 	 00000027 	  pop 	 [39]
00000577 	 A0000003 	 00000028 	  pop 	 [40]
00000578 	 A0000003 	 00000029 	  pop 	 [41]
00000579 	 00000013 	 00002D1E 	 call 	 gray
00000580 	 A0000003 	 0000002A 	  pop 	 [42]
00000581 	 A0000003 	 0000002B 	  pop 	 [43]
00000582 	 A0000003 	 0000002C 	  pop 	 [44]
00000583 	 00000013 	 00002D17 	 call 	 black
00000584 	 A0000003 	 0000002D 	  pop 	 [45]
00000585 	 A0000003 	 0000002E 	  pop 	 [46]
00000586 	 A0000003 	 0000002F 	  pop 	 [47]
00000587 	 00000013 	 00002D1E 	 call 	 gray
00000588 	 A0000003 	 00000030 	  pop 	 [48]
00000589 	 A0000003 	 00000031 	  pop 	 [49]
00000590 	 A0000003 	 00000032 	  pop 	 [50]
00000591 	 00000013 	 00002D17 	 call 	 black
00000592 	 A0000003 	 00000033 	  pop 	 [51]
00000593 	 A0000003 	 00000034 	  pop 	 [52]
00000594 	 A0000003 	 00000035 	  pop 	 [53]
00000595 	 00000013 	 00002D1E 	 call 	 gray
00000596 	 A0000003 	 00000036 	  pop 	 [54]
00000597 	 A0000003 	 00000037 	  pop 	 [55]
00000598 	 A0000003 	 00000038 	  pop 	 [56]
00000599 	 00000013 	 00002D17 	 call 	 black
00000600 	 A0000003 	 00000039 	  pop 	 [57]
00000601 	 A0000003 	 0000003A 	  pop 	 [58]
00000602 	 A0000003 	 0000003B 	  pop 	 [59]
00000603 	 00000013 	 00002D1E 	 call 	 gray
00000604 	 A0000003 	 0000003C 	  pop 	 [60]
00000605 	 A0000003 	 0000003D 	  pop 	 [61]
00000606 	 A0000003 	 0000003E 	  pop 	 [62]
00000607 	 00000013 	 00002D17 	 call 	 black
00000608 	 A0000003 	 0000003F 	  pop 	 [63]
00000609 	 A0000003 	 00000040 	  pop 	 [64]
00000610 	 A0000003 	 00000041 	  pop 	 [65]
00000611 	 00000013 	 00002D1E 	 call 	 gray
00000612 	 A0000003 	 00000042 	  pop 	 [66]
00000613 	 A0000003 	 00000043 	  pop 	 [67]
00000614 	 A0000003 	 00000044 	  pop 	 [68]
00000615 	 00000013 	 00002D17 	 call 	 black
00000616 	 A0000003 	 00000045 	  pop 	 [69]
00000617 	 A0000003 	 00000046 	  pop 	 [70]
00000618 	 A0000003 	 00000047 	  pop 	 [71]
00000619 	 00000013 	 00002D1E 	 call 	 gray
00000620 	 A0000003 	 00000048 	  pop 	 [72]
00000621 	 A0000003 	 00000049 	  pop 	 [73]
00000622 	 A0000003 	 0000004A 	  pop 	 [74]
00000623 	 00000013 	 00002D17 	 call 	 black
00000624 	 A0000003 	 0000004B 	  pop 	 [75]
00000625 	 A0000003 	 0000004C 	  pop 	 [76]
00000626 	 A0000003 	 0000004D 	  pop 	 [77]
00000627 	 00000013 	 00002D1E 	 call 	 gray
00000628 	 A0000003 	 0000004E 	  pop 	 [78]
00000629 	 A0000003 	 0000004F 	  pop 	 [79]
00000630 	 A0000003 	 00000050 	  pop 	 [80]
00000631 	 00000013 	 00002D17 	 call 	 black
00000632 	 A0000003 	 00000051 	  pop 	 [81]
00000633 	 A0000003 	 00000052 	  pop 	 [82]
00000634 	 A0000003 	 00000053 	  pop 	 [83]
00000635 	 00000013 	 00002D1E 	 call 	 gray
00000636 	 A0000003 	 00000054 	  pop 	 [84]
00000637 	 A0000003 	 00000055 	  pop 	 [85]
00000638 	 A0000003 	 00000056 	  pop 	 [86]
00000639 	 00000013 	 00002D17 	 call 	 black
00000640 	 A0000003 	 00000057 	  pop 	 [87]
00000641 	 A0000003 	 00000058 	  pop 	 [88]
00000642 	 A0000003 	 00000059 	  pop 	 [89]
00000643 	 00000013 	 00002D1E 	 call 	 gray
00000644 	 A0000003 	 0000005A 	  pop 	 [90]
00000645 	 A0000003 	 0000005B 	  pop 	 [91]
00000646 	 A0000003 	 0000005C 	  pop 	 [92]
00000647 	 00000013 	 00002D17 	 call 	 black
00000648 	 A0000003 	 0000005D 	  pop 	 [93]
00000649 	 A0000003 	 0000005E 	  pop 	 [94]
00000650 	 A0000003 	 0000005F 	  pop 	 [95]
00000651 	 00000013 	 00002D1E 	 call 	 gray
00000652 	 A0000003 	 00000060 	  pop 	 [96]
00000653 	 A0000003 	 00000061 	  pop 	 [97]
00000654 	 A0000003 	 00000062 	  pop 	 [98]
00000655 	 00000013 	 00002D17 	 call 	 black
00000656 	 A0000003 	 00000063 	  pop 	 [99]
00000657 	 A0000003 	 00000064 	  pop 	 [100]
00000658 	 A0000003 	 00000065 	  pop 	 [101]
00000659 	 00000013 	 00002D1E 	 call 	 gray
00000660 	 A0000003 	 00000066 	  pop 	 [102]
00000661 	 A0000003 	 00000067 	  pop 	 [103]
00000662 	 A0000003 	 00000068 	  pop 	 [104]
00000663 	 00000013 	 00002D17 	 call 	 black
00000664 	 A0000003 	 00000069 	  pop 	 [105]
00000665 	 A0000003 	 0000006A 	  pop 	 [106]
00000666 	 A0000003 	 0000006B 	  pop 	 [107]
00000667 	 00000013 	 00002D1E 	 call 	 gray
00000668 	 A0000003 	 0000006C 	  pop 	 [108]
00000669 	 A0000003 	 0000006D 	  pop 	 [109]
00000670 	 A0000003 	 0000006E 	  pop 	 [110]
00000671 	 00000013 	 00002D17 	 call 	 black
00000672 	 A0000003 	 0000006F 	  pop 	 [111]
00000673 	 A0000003 	 00000070 	  pop 	 [112]
00000674 	 A0000003 	 00000071 	  pop 	 [113]
00000675 	 00000013 	 00002D1E 	 call 	 gray
00000676 	 A0000003 	 00000072 	  pop 	 [114]
00000677 	 A0000003 	 00000073 	  pop 	 [115]
00000678 	 A0000003 	 00000074 	  pop 	 [116]
00000679 	 00000013 	 00002D17 	 call 	 black
00000680 	 A0000003 	 00000075 	  pop 	 [117]
00000681 	 A0000003 	 00000076 	  pop 	 [118]
00000682 	 A0000003 	 00000077 	  pop 	 [119]
00000683 	 00000013 	 00002D1E 	 call 	 gray
00000684 	 A0000003 	 00000078 	  pop 	 [120]
00000685 	 A0000003 	 00000079 	  pop 	 [121]
00000686 	 A0000003 	 0000007A 	  pop 	 [122]
00000687 	 00000013 	 00002D17 	 call 	 black
00000688 	 A0000003 	 0000007B 	  pop 	 [123]
00000689 	 A0000003 	 0000007C 	  pop 	 [124]
00000690 	 A0000003 	 0000007D 	  pop 	 [125]
00000691 	 00000013 	 00002D1E 	 call 	 gray
00000692 	 A0000003 	 0000007E 	  pop 	 [126]
00000693 	 A0000003 	 0000007F 	  pop 	 [127]
00000694 	 A0000003 	 00000080 	  pop 	 [128]
00000695 	 00000013 	 00002D17 	 call 	 black
00000696 	 A0000003 	 00000081 	  pop 	 [129]
00000697 	 A0000003 	 00000082 	  pop 	 [130]
00000698 	 A0000003 	 00000083 	  pop 	 [131]
00000699 	 00000013 	 00002D1E 	 call 	 gray
00000700 	 A0000003 	 00000084 	  pop 	 [132]
00000701 	 A0000003 	 00000085 	  pop 	 [133]
00000702 	 A0000003 	 00000086 	  pop 	 [134]
00000703 	 00000013 	 00002D17 	 call 	 black
00000704 	 A0000003 	 00000087 	  pop 	 [135]
00000705 	 A0000003 	 00000088 	  pop 	 [136]
00000706 	 A0000003 	 00000089 	  pop 	 [137]
00000707 	 00000013 	 00002D1E 	 call 	 gray
00000708 	 A0000003 	 0000008A 	  pop 	 [138]
00000709 	 A0000003 	 0000008B 	  pop 	 [139]
00000710 	 A0000003 	 0000008C 	  pop 	 [140]
00000711 	 00000013 	 00002D17 	 call 	 black
00000712 	 A0000003 	 0000008D 	  pop 	 [141]
00000713 	 A0000003 	 0000008E 	  pop 	 [142]
00000714 	 A0000003 	 0000008F 	  pop 	 [143]
00000715 	 00000013 	 00002D1E 	 call 	 gray
00000716 	 A0000003 	 00000090 	  pop 	 [144]
00000717 	 A0000003 	 00000091 	  pop 	 [145]
00000718 	 A0000003 	 00000092 	  pop 	 [146]
00000719 	 00000013 	 00002D17 	 call 	 black
00000720 	 A0000003 	 00000093 	  pop 	 [147]
00000721 	 A0000003 	 00000094 	  pop 	 [148]
00000722 	 A0000003 	 00000095 	  pop 	 [149]
00000723 	 00000013 	 00002D1E 	 call 	 gray
00000724 	 A0000003 	 00000096 	  pop 	 [150]
00000725 	 A0000003 	 00000097 	  pop 	 [151]
00000726 	 A0000003 	 00000098 	  pop 	 [152]
00000727 	 00000013 	 00002D17 	 call 	 black
00000728 	 A0000003 	 00000099 	  pop 	 [153]
00000729 	 A0000003 	 0000009A 	  pop 	 [154]
00000730 	 A0000003 	 0000009B 	  pop 	 [155]
00000731 	 00000013 	 00002D1E 	 call 	 gray
00000732 	 A0000003 	 0000009C 	  pop 	 [156]
00000733 	 A0000003 	 0000009D 	  pop 	 [157]
00000734 	 A0000003 	 0000009E 	  pop 	 [158]
00000735 	 00000013 	 00002D17 	 call 	 black
00000736 	 A0000003 	 0000009F 	  pop 	 [159]
00000737 	 A0000003 	 000000A0 	  pop 	 [160]
00000738 	 A0000003 	 000000A1 	  pop 	 [161]
00000739 	 00000013 	 00002D1E 	 call 	 gray
00000740 	 A0000003 	 000000A2 	  pop 	 [162]
00000741 	 A0000003 	 000000A3 	  pop 	 [163]
00000742 	 A0000003 	 000000A4 	  pop 	 [164]
00000743 	 00000013 	 00002D17 	 call 	 black
00000744 	 A0000003 	 000000A5 	  pop 	 [165]
00000745 	 A0000003 	 000000A6 	  pop 	 [166]
00000746 	 A0000003 	 000000A7 	  pop 	 [167]
00000747 	 00000013 	 00002D1E 	 call 	 gray
00000748 	 A0000003 	 000000A8 	  pop 	 [168]
00000749 	 A0000003 	 000000A9 	  pop 	 [169]
00000750 	 A0000003 	 000000AA 	  pop 	 [170]
00000751 	 00000013 	 00002D17 	 call 	 black
00000752 	 A0000003 	 000000AB 	  pop 	 [171]
00000753 	 A0000003 	 000000AC 	  pop 	 [172]
00000754 	 A0000003 	 000000AD 	  pop 	 [173]
00000755 	 00000013 	 00002D1E 	 call 	 gray
00000756 	 A0000003 	 000000AE 	  pop 	 [174]
00000757 	 A0000003 	 000000AF 	  pop 	 [175]
00000758 	 A0000003 	 000000B0 	  pop 	 [176]
00000759 	 00000013 	 00002D17 	 call 	 black
00000760 	 A0000003 	 000000B1 	  pop 	 [177]
00000761 	 A0000003 	 000000B2 	  pop 	 [178]
00000762 	 A0000003 	 000000B3 	  pop 	 [179]
00000763 	 00000013 	 00002D1E 	 call 	 gray
00000764 	 A0000003 	 000000B4 	  pop 	 [180]
00000765 	 A0000003 	 000000B5 	  pop 	 [181]
00000766 	 A0000003 	 000000B6 	  pop 	 [182]
00000767 	 00000013 	 00002D17 	 call 	 black
00000768 	 A0000003 	 000000B7 	  pop 	 [183]
00000769 	 A0000003 	 000000B8 	  pop 	 [184]
00000770 	 A0000003 	 000000B9 	  pop 	 [185]
00000771 	 00000013 	 00002D1E 	 call 	 gray
00000772 	 A0000003 	 000000BA 	  pop 	 [186]
00000773 	 A0000003 	 000000BB 	  pop 	 [187]
00000774 	 A0000003 	 000000BC 	  pop 	 [188]
00000775 	 00000013 	 00002D17 	 call 	 black
00000776 	 A0000003 	 000000BD 	  pop 	 [189]
00000777 	 A0000003 	 000000BE 	  pop 	 [190]
00000778 	 A0000003 	 000000BF 	  pop 	 [191]
00000779 	 00000013 	 00002D1E 	 call 	 gray
00000780 	 A0000003 	 000000C0 	  pop 	 [192]
00000781 	 A0000003 	 000000C1 	  pop 	 [193]
00000782 	 A0000003 	 000000C2 	  pop 	 [194]
00000783 	 00000013 	 00002D17 	 call 	 black
00000784 	 A0000003 	 000000C3 	  pop 	 [195]
00000785 	 A0000003 	 000000C4 	  pop 	 [196]
00000786 	 A0000003 	 000000C5 	  pop 	 [197]
00000787 	 00000013 	 00002D1E 	 call 	 gray
00000788 	 A0000003 	 000000C6 	  pop 	 [198]
00000789 	 A0000003 	 000000C7 	  pop 	 [199]
00000790 	 A0000003 	 000000C8 	  pop 	 [200]
00000791 	 00000013 	 00002D17 	 call 	 black
00000792 	 A0000003 	 000000C9 	  pop 	 [201]
00000793 	 A0000003 	 000000CA 	  pop 	 [202]
00000794 	 A0000003 	 000000CB 	  pop 	 [203]
00000795 	 00000013 	 00002D1E 	 call 	 gray
00000796 	 A0000003 	 000000CC 	  pop 	 [204]
00000797 	 A0000003 	 000000CD 	  pop 	 [205]
00000798 	 A0000003 	 000000CE 	  pop 	 [206]
00000799 	 00000013 	 00002D17 	 call 	 black
00000800 	 A0000003 	 000000CF 	  pop 	 [207]
00000801 	 A0000003 	 000000D0 	  pop 	 [208]
00000802 	 A0000003 	 000000D1 	  pop 	 [209]
00000803 	 00000013 	 00002D1E 	 call 	 gray
00000804 	 A0000003 	 000000D2 	  pop 	 [210]
00000805 	 A0000003 	 000000D3 	  pop 	 [211]
00000806 	 A0000003 	 000000D4 	  pop 	 [212]
00000807 	 00000013 	 00002D17 	 call 	 black
00000808 	 A0000003 	 000000D5 	  pop 	 [213]
00000809 	 A0000003 	 000000D6 	  pop 	 [214]
00000810 	 A0000003 	 000000D7 	  pop 	 [215]
00000811 	 00000013 	 00002CD1 	 call 	 rb1
00000812 	 A0000003 	 000000D8 	  pop 	 [216]
00000813 	 A0000003 	 000000D9 	  pop 	 [217]
00000814 	 A0000003 	 000000DA 	  pop 	 [218]
00000815 	 00000013 	 00002CD1 	 call 	 rb1
00000816 	 A0000003 	 000000DB 	  pop 	 [219]
00000817 	 A0000003 	 000000DC 	  pop 	 [220]
00000818 	 A0000003 	 000000DD 	  pop 	 [221]
00000819 	 00000013 	 00002CD1 	 call 	 rb1
00000820 	 A0000003 	 000000DE 	  pop 	 [222]
00000821 	 A0000003 	 000000DF 	  pop 	 [223]
00000822 	 A0000003 	 000000E0 	  pop 	 [224]
00000823 	 00000013 	 00002CD1 	 call 	 rb1
00000824 	 A0000003 	 000000E1 	  pop 	 [225]
00000825 	 A0000003 	 000000E2 	  pop 	 [226]
00000826 	 A0000003 	 000000E3 	  pop 	 [227]
00000827 	 00000013 	 00002CD1 	 call 	 rb1
00000828 	 A0000003 	 000000E4 	  pop 	 [228]
00000829 	 A0000003 	 000000E5 	  pop 	 [229]
00000830 	 A0000003 	 000000E6 	  pop 	 [230]
00000831 	 00000013 	 00002D17 	 call 	 black
00000832 	 A0000003 	 000000E7 	  pop 	 [231]
00000833 	 A0000003 	 000000E8 	  pop 	 [232]
00000834 	 A0000003 	 000000E9 	  pop 	 [233]
00000835 	 00000013 	 00002D1E 	 call 	 gray
00000836 	 A0000003 	 000000EA 	  pop 	 [234]
00000837 	 A0000003 	 000000EB 	  pop 	 [235]
00000838 	 A0000003 	 000000EC 	  pop 	 [236]
00000839 	 00000013 	 00002D17 	 call 	 black
00000840 	 A0000003 	 000000ED 	  pop 	 [237]
00000841 	 A0000003 	 000000EE 	  pop 	 [238]
00000842 	 A0000003 	 000000EF 	  pop 	 [239]
00000843 	 00000013 	 00002CD1 	 call 	 rb1
00000844 	 A0000003 	 000000F0 	  pop 	 [240]
00000845 	 A0000003 	 000000F1 	  pop 	 [241]
00000846 	 A0000003 	 000000F2 	  pop 	 [242]
00000847 	 00000013 	 00002CD1 	 call 	 rb1
00000848 	 A0000003 	 000000F3 	  pop 	 [243]
00000849 	 A0000003 	 000000F4 	  pop 	 [244]
00000850 	 A0000003 	 000000F5 	  pop 	 [245]
00000851 	 00000013 	 00002CD1 	 call 	 rb1
00000852 	 A0000003 	 000000F6 	  pop 	 [246]
00000853 	 A0000003 	 000000F7 	  pop 	 [247]
00000854 	 A0000003 	 000000F8 	  pop 	 [248]
00000855 	 00000013 	 00002CD1 	 call 	 rb1
00000856 	 A0000003 	 000000F9 	  pop 	 [249]
00000857 	 A0000003 	 000000FA 	  pop 	 [250]
00000858 	 A0000003 	 000000FB 	  pop 	 [251]
00000859 	 00000013 	 00002CD1 	 call 	 rb1
00000860 	 A0000003 	 000000FC 	  pop 	 [252]
00000861 	 A0000003 	 000000FD 	  pop 	 [253]
00000862 	 A0000003 	 000000FE 	  pop 	 [254]
00000863 	 00000013 	 00002CD1 	 call 	 rb1
00000864 	 A0000003 	 000000FF 	  pop 	 [255]
00000865 	 A0000003 	 00000100 	  pop 	 [256]
00000866 	 A0000003 	 00000101 	  pop 	 [257]
00000867 	 00000013 	 00002CD1 	 call 	 rb1
00000868 	 A0000003 	 00000102 	  pop 	 [258]
00000869 	 A0000003 	 00000103 	  pop 	 [259]
00000870 	 A0000003 	 00000104 	  pop 	 [260]
00000871 	 00000013 	 00002CD1 	 call 	 rb1
00000872 	 A0000003 	 00000105 	  pop 	 [261]
00000873 	 A0000003 	 00000106 	  pop 	 [262]
00000874 	 A0000003 	 00000107 	  pop 	 [263]
00000875 	 00000013 	 00002CD1 	 call 	 rb1
00000876 	 A0000003 	 00000108 	  pop 	 [264]
00000877 	 A0000003 	 00000109 	  pop 	 [265]
00000878 	 A0000003 	 0000010A 	  pop 	 [266]
00000879 	 00000013 	 00002D17 	 call 	 black
00000880 	 A0000003 	 0000010B 	  pop 	 [267]
00000881 	 A0000003 	 0000010C 	  pop 	 [268]
00000882 	 A0000003 	 0000010D 	  pop 	 [269]
00000883 	 00000013 	 00002D1E 	 call 	 gray
00000884 	 A0000003 	 0000010E 	  pop 	 [270]
00000885 	 A0000003 	 0000010F 	  pop 	 [271]
00000886 	 A0000003 	 00000110 	  pop 	 [272]
00000887 	 00000013 	 00002D17 	 call 	 black
00000888 	 A0000003 	 00000111 	  pop 	 [273]
00000889 	 A0000003 	 00000112 	  pop 	 [274]
00000890 	 A0000003 	 00000113 	  pop 	 [275]
00000891 	 00000013 	 00002D1E 	 call 	 gray
00000892 	 A0000003 	 00000114 	  pop 	 [276]
00000893 	 A0000003 	 00000115 	  pop 	 [277]
00000894 	 A0000003 	 00000116 	  pop 	 [278]
00000895 	 00000013 	 00002D17 	 call 	 black
00000896 	 A0000003 	 00000117 	  pop 	 [279]
00000897 	 A0000003 	 00000118 	  pop 	 [280]
00000898 	 A0000003 	 00000119 	  pop 	 [281]
00000899 	 00000013 	 00002D1E 	 call 	 gray
00000900 	 A0000003 	 0000011A 	  pop 	 [282]
00000901 	 A0000003 	 0000011B 	  pop 	 [283]
00000902 	 A0000003 	 0000011C 	  pop 	 [284]
00000903 	 00000013 	 00002D17 	 call 	 black
00000904 	 A0000003 	 0000011D 	  pop 	 [285]
00000905 	 A0000003 	 0000011E 	  pop 	 [286]
00000906 	 A0000003 	 0000011F 	  pop 	 [287]
00000907 	 00000013 	 00002CD1 	 call 	 rb1
00000908 	 A0000003 	 00000138 	  pop 	 [312]
00000909 	 A0000003 	 00000139 	  pop 	 [313]
00000910 	 A0000003 	 0000013A 	  pop 	 [314]
00000911 	 00000013 	 00002CD1 	 call 	 rb1
00000912 	 A0000003 	 00000147 	  pop 	 [327]
00000913 	 A0000003 	 00000148 	  pop 	 [328]
00000914 	 A0000003 	 00000149 	  pop 	 [329]
00000915 	 00000013 	 00002CD1 	 call 	 rb1
00000916 	 A0000003 	 0000015C 	  pop 	 [348]
00000917 	 A0000003 	 0000015D 	  pop 	 [349]
00000918 	 A0000003 	 0000015E 	  pop 	 [350]
00000919 	 00000013 	 00002CD1 	 call 	 rb1
00000920 	 A0000003 	 000001BC 	  pop 	 [444]
00000921 	 A0000003 	 000001BD 	  pop 	 [445]
00000922 	 A0000003 	 000001BE 	  pop 	 [446]
00000923 	 00000013 	 00002CD1 	 call 	 rb1
00000924 	 A0000003 	 0000021C 	  pop 	 [540]
00000925 	 A0000003 	 0000021D 	  pop 	 [541]
00000926 	 A0000003 	 0000021E 	  pop 	 [542]
00000927 	 00000013 	 00002CD1 	 call 	 rb1
00000928 	 A0000003 	 0000027C 	  pop 	 [636]
00000929 	 A0000003 	 0000027D 	  pop 	 [637]
00000930 	 A0000003 	 0000027E 	  pop 	 [638]
00000931 	 00000013 	 00002CD1 	 call 	 rb1
00000932 	 A0000003 	 000002DC 	  pop 	 [732]
00000933 	 A0000003 	 000002DD 	  pop 	 [733]
00000934 	 A0000003 	 000002DE 	  pop 	 [734]
00000935 	 00000013 	 00002CD1 	 call 	 rb1
00000936 	 A0000003 	 0000033C 	  pop 	 [828]
00000937 	 A0000003 	 0000033D 	  pop 	 [829]
00000938 	 A0000003 	 0000033E 	  pop 	 [830]
00000939 	 00000013 	 00002CD1 	 call 	 rb1
00000940 	 A0000003 	 0000039C 	  pop 	 [924]
00000941 	 A0000003 	 0000039D 	  pop 	 [925]
00000942 	 A0000003 	 0000039E 	  pop 	 [926]
00000943 	 00000013 	 00002CD1 	 call 	 rb1
00000944 	 A0000003 	 000003FC 	  pop 	 [1020]
00000945 	 A0000003 	 000003FD 	  pop 	 [1021]
00000946 	 A0000003 	 000003FE 	  pop 	 [1022]
00000947 	 00000013 	 00002CD1 	 call 	 rb1
00000948 	 A0000003 	 0000045C 	  pop 	 [1116]
00000949 	 A0000003 	 0000045D 	  pop 	 [1117]
00000950 	 A0000003 	 0000045E 	  pop 	 [1118]
00000951 	 00000013 	 00002CD1 	 call 	 rb1
00000952 	 A0000003 	 000004BC 	  pop 	 [1212]
00000953 	 A0000003 	 000004BD 	  pop 	 [1213]
00000954 	 A0000003 	 000004BE 	  pop 	 [1214]
00000955 	 00000013 	 00002CD1 	 call 	 rb1
00000956 	 A0000003 	 0000051C 	  pop 	 [1308]
00000957 	 A0000003 	 0000051D 	  pop 	 [1309]
00000958 	 A0000003 	 0000051E 	  pop 	 [1310]
00000959 	 00000013 	 00002CD1 	 call 	 rb1
00000960 	 A0000003 	 0000057C 	  pop 	 [1404]
00000961 	 A0000003 	 0000057D 	  pop 	 [1405]
00000962 	 A0000003 	 0000057E 	  pop 	 [1406]
00000963 	 00000013 	 00002CD1 	 call 	 rb1
00000964 	 A0000003 	 000005DC 	  pop 	 [1500]
00000965 	 A0000003 	 000005DD 	  pop 	 [1501]
00000966 	 A0000003 	 000005DE 	  pop 	 [1502]
00000967 	 00000013 	 00002CD1 	 call 	 rb1
00000968 	 A0000003 	 00000198 	  pop 	 [408]
00000969 	 A0000003 	 00000199 	  pop 	 [409]
00000970 	 A0000003 	 0000019A 	  pop 	 [410]
00000971 	 00000013 	 00002CD1 	 call 	 rb1
00000972 	 A0000003 	 000001A7 	  pop 	 [423]
00000973 	 A0000003 	 000001A8 	  pop 	 [424]
00000974 	 A0000003 	 000001A9 	  pop 	 [425]
00000975 	 00000013 	 00002CD1 	 call 	 rb1
00000976 	 A0000003 	 000001F8 	  pop 	 [504]
00000977 	 A0000003 	 000001F9 	  pop 	 [505]
00000978 	 A0000003 	 000001FA 	  pop 	 [506]
00000979 	 00000013 	 00002CD1 	 call 	 rb1
00000980 	 A0000003 	 00000207 	  pop 	 [519]
00000981 	 A0000003 	 00000208 	  pop 	 [520]
00000982 	 A0000003 	 00000209 	  pop 	 [521]
00000983 	 00000013 	 00002CD1 	 call 	 rb1
00000984 	 A0000003 	 00000258 	  pop 	 [600]
00000985 	 A0000003 	 00000259 	  pop 	 [601]
00000986 	 A0000003 	 0000025A 	  pop 	 [602]
00000987 	 00000013 	 00002CD1 	 call 	 rb1
00000988 	 A0000003 	 00000267 	  pop 	 [615]
00000989 	 A0000003 	 00000268 	  pop 	 [616]
00000990 	 A0000003 	 00000269 	  pop 	 [617]
00000991 	 00000013 	 00002CD1 	 call 	 rb1
00000992 	 A0000003 	 000002B8 	  pop 	 [696]
00000993 	 A0000003 	 000002B9 	  pop 	 [697]
00000994 	 A0000003 	 000002BA 	  pop 	 [698]
00000995 	 00000013 	 00002CD1 	 call 	 rb1
00000996 	 A0000003 	 000002BB 	  pop 	 [699]
00000997 	 A0000003 	 000002BC 	  pop 	 [700]
00000998 	 A0000003 	 000002BD 	  pop 	 [701]
00000999 	 00000013 	 00002CD1 	 call 	 rb1
00001000 	 A0000003 	 000002BE 	  pop 	 [702]
00001001 	 A0000003 	 000002BF 	  pop 	 [703]
00001002 	 A0000003 	 000002C0 	  pop 	 [704]
00001003 	 00000013 	 00002CD1 	 call 	 rb1
00001004 	 A0000003 	 000002C1 	  pop 	 [705]
00001005 	 A0000003 	 000002C2 	  pop 	 [706]
00001006 	 A0000003 	 000002C3 	  pop 	 [707]
00001007 	 00000013 	 00002CD1 	 call 	 rb1
00001008 	 A0000003 	 000002C4 	  pop 	 [708]
00001009 	 A0000003 	 000002C5 	  pop 	 [709]
00001010 	 A0000003 	 000002C6 	  pop 	 [710]
00001011 	 00000013 	 00002CD1 	 call 	 rb1
00001012 	 A0000003 	 00000318 	  pop 	 [792]
00001013 	 A0000003 	 00000319 	  pop 	 [793]
00001014 	 A0000003 	 0000031A 	  pop 	 [794]
00001015 	 00000013 	 00002CD1 	 call 	 rb1
00001016 	 A0000003 	 00000378 	  pop 	 [888]
00001017 	 A0000003 	 00000379 	  pop 	 [889]
00001018 	 A0000003 	 0000037A 	  pop 	 [890]
00001019 	 00000013 	 00002CD1 	 call 	 rb1
00001020 	 A0000003 	 000003D8 	  pop 	 [984]
00001021 	 A0000003 	 000003D9 	  pop 	 [985]
00001022 	 A0000003 	 000003DA 	  pop 	 [986]
00001023 	 00000013 	 00002CD1 	 call 	 rb1
00001024 	 A0000003 	 00000438 	  pop 	 [1080]
00001025 	 A0000003 	 00000439 	  pop 	 [1081]
00001026 	 A0000003 	 0000043A 	  pop 	 [1082]
00001027 	 00000013 	 00002CD1 	 call 	 rb1
00001028 	 A0000003 	 00000498 	  pop 	 [1176]
00001029 	 A0000003 	 00000499 	  pop 	 [1177]
00001030 	 A0000003 	 0000049A 	  pop 	 [1178]
00001031 	 00000013 	 00002CD1 	 call 	 rb1
00001032 	 A0000003 	 000004F8 	  pop 	 [1272]
00001033 	 A0000003 	 000004F9 	  pop 	 [1273]
00001034 	 A0000003 	 000004FA 	  pop 	 [1274]
00001035 	 00000013 	 00002CD1 	 call 	 rb1
00001036 	 A0000003 	 00000558 	  pop 	 [1368]
00001037 	 A0000003 	 00000559 	  pop 	 [1369]
00001038 	 A0000003 	 0000055A 	  pop 	 [1370]
00001039 	 00000013 	 00002CD1 	 call 	 rb1
00001040 	 A0000003 	 000005B8 	  pop 	 [1464]
00001041 	 A0000003 	 000005B9 	  pop 	 [1465]
00001042 	 A0000003 	 000005BA 	  pop 	 [1466]
00001043 	 00000016 	          	 scan
00001044 	 00000017 	          	 draw
00001045 	 00000013 	 00002D1E 	 call 	 gray
00001046 	 A0000003 	 00000000 	  pop 	 [0]
00001047 	 A0000003 	 00000001 	  pop 	 [1]
00001048 	 A0000003 	 00000002 	  pop 	 [2]
00001049 	 00000013 	 00002D17 	 call 	 black
00001050 	 A0000003 	 00000003 	  pop 	 [3]
00001051 	 A0000003 	 00000004 	  pop 	 [4]
00001052 	 A0000003 	 00000005 	  pop 	 [5]
00001053 	 00000013 	 00002D1E 	 call 	 gray
00001054 	 A0000003 	 00000006 	  pop 	 [6]
00001055 	 A0000003 	 00000007 	  pop 	 [7]
00001056 	 A0000003 	 00000008 	  pop 	 [8]
00001057 	 00000013 	 00002D17 	 call 	 black
00001058 	 A0000003 	 00000009 	  pop 	 [9]
00001059 	 A0000003 	 0000000A 	  pop 	 [10]
00001060 	 A0000003 	 0000000B 	  pop 	 [11]
00001061 	 00000013 	 00002D1E 	 call 	 gray
00001062 	 A0000003 	 0000000C 	  pop 	 [12]
00001063 	 A0000003 	 0000000D 	  pop 	 [13]
00001064 	 A0000003 	 0000000E 	  pop 	 [14]
00001065 	 00000013 	 00002D17 	 call 	 black
00001066 	 A0000003 	 0000000F 	  pop 	 [15]
00001067 	 A0000003 	 00000010 	  pop 	 [16]
00001068 	 A0000003 	 00000011 	  pop 	 [17]
00001069 	 00000013 	 00002D1E 	 call 	 gray
00001070 	 A0000003 	 00000012 	  pop 	 [18]
00001071 	 A0000003 	 00000013 	  pop 	 [19]
00001072 	 A0000003 	 00000014 	  pop 	 [20]
00001073 	 00000013 	 00002D17 	 call 	 black
00001074 	 A0000003 	 00000015 	  pop 	 [21]
00001075 	 A0000003 	 00000016 	  pop 	 [22]
00001076 	 A0000003 	 00000017 	  pop 	 [23]
00001077 	 00000013 	 00002D1E 	 call 	 gray
00001078 	 A0000003 	 00000018 	  pop 	 [24]
00001079 	 A0000003 	 00000019 	  pop 	 [25]
00001080 	 A0000003 	 0000001A 	  pop 	 [26]
00001081 	 00000013 	 00002D17 	 call 	 black
00001082 	 A0000003 	 0000001B 	  pop 	 [27]
00001083 	 A0000003 	 0000001C 	  pop 	 [28]
00001084 	 A0000003 	 0000001D 	  pop 	 [29]
00001085 	 00000013 	 00002D1E 	 call 	 gray
00001086 	 A0000003 	 0000001E 	  pop 	 [30]
00001087 	 A0000003 	 0000001F 	  pop 	 [31]
00001088 	 A0000003 	 00000020 	  pop 	 [32]
00001089 	 00000013 	 00002D17 	 call 	 black
00001090 	 A0000003 	 00000021 	  pop 	 [33]
00001091 	 A0000003 	 00000022 	  pop 	 [34]
00001092 	 A0000003 	 00000023 	  pop 	 [35]
00001093 	 00000013 	 00002D1E 	 call 	 gray
00001094 	 A0000003 	 00000024 	  pop 	 [36]
00001095 	 A0000003 	 00000025 	  pop 	 [37]
00001096 	 A0000003 	 00000026 	  pop 	 [38]
00001097 	 00000013 	 00002D17 	 call 	 black
00001098 	 A0000003 	 00000027 	  pop 	 [39]
00001099 	 A0000003 	 00000028 	  pop 	 [40]
00001100 	 A0000003 	 00000029 	  pop 	 [41]
00001101 	 00000013 	 00002D1E 	 call 	 gray
00001102 	 A0000003 	 0000002A 	  pop 	 [42]
00001103 	 A0000003 	 0000002B 	  pop 	 [43]
00001104 	 A0000003 	 0000002C 	  pop 	 [44]
00001105 	 00000013 	 00002D17 	 call 	 black
00001106 	 A0000003 	 0000002D 	  pop 	 [45]
00001107 	 A0000003 	 0000002E 	  pop 	 [46]
00001108 	 A0000003 	 0000002F 	  pop 	 [47]
00001109 	 00000013 	 00002D1E 	 call 	 gray
00001110 	 A0000003 	 00000030 	  pop 	 [48]
00001111 	 A0000003 	 00000031 	  pop 	 [49]
00001112 	 A0000003 	 00000032 	  pop 	 [50]
00001113 	 00000013 	 00002D17 	 call 	 black
00001114 	 A0000003 	 00000033 	  pop 	 [51]
00001115 	 A0000003 	 00000034 	  pop 	 [52]
00001116 	 A0000003 	 00000035 	  pop 	 [53]
00001117 	 00000013 	 00002D1E 	 call 	 gray
00001118 	 A0000003 	 00000036 	  pop 	 [54]
00001119 	 A0000003 	 00000037 	  pop 	 [55]
00001120 	 A0000003 	 00000038 	  pop 	 [56]
00001121 	 00000013 	 00002D17 	 call 	 black
00001122 	 A0000003 	 00000039 	  pop 	 [57]
00001123 	 A0000003 	 0000003A 	  pop 	 [58]
00001124 	 A0000003 	 0000003B 	  pop 	 [59]
00001125 	 00000013 	 00002D1E 	 call 	 gray
00001126 	 A0000003 	 0000003C 	  pop 	 [60]
00001127 	 A0000003 	 0000003D 	  pop 	 [61]
00001128 	 A0000003 	 0000003E 	  pop 	 [62]
00001129 	 00000013 	 00002D17 	 call 	 black
00001130 	 A0000003 	 0000003F 	  pop 	 [63]
00001131 	 A0000003 	 00000040 	  pop 	 [64]
00001132 	 A0000003 	 00000041 	  pop 	 [65]
00001133 	 00000013 	 00002D1E 	 call 	 gray
00001134 	 A0000003 	 00000042 	  pop 	 [66]
00001135 	 A0000003 	 00000043 	  pop 	 [67]
00001136 	 A0000003 	 00000044 	  pop 	 [68]
00001137 	 00000013 	 00002D17 	 call 	 black
00001138 	 A0000003 	 00000045 	  pop 	 [69]
00001139 	 A0000003 	 00000046 	  pop 	 [70]
00001140 	 A0000003 	 00000047 	  pop 	 [71]
00001141 	 00000013 	 00002D1E 	 call 	 gray
00001142 	 A0000003 	 00000048 	  pop 	 [72]
00001143 	 A0000003 	 00000049 	  pop 	 [73]
00001144 	 A0000003 	 0000004A 	  pop 	 [74]
00001145 	 00000013 	 00002D17 	 call 	 black
00001146 	 A0000003 	 0000004B 	  pop 	 [75]
00001147 	 A0000003 	 0000004C 	  pop 	 [76]
00001148 	 A0000003 	 0000004D 	  pop 	 [77]
00001149 	 00000013 	 00002D1E 	 call 	 gray
00001150 	 A0000003 	 0000004E 	  pop 	 [78]
00001151 	 A0000003 	 0000004F 	  pop 	 [79]
00001152 	 A0000003 	 00000050 	  pop 	 [80]
00001153 	 00000013 	 00002D17 	 call 	 black
00001154 	 A0000003 	 00000051 	  pop 	 [81]
00001155 	 A0000003 	 00000052 	  pop 	 [82]
00001156 	 A0000003 	 00000053 	  pop 	 [83]
00001157 	 00000013 	 00002D1E 	 call 	 gray
00001158 	 A0000003 	 00000054 	  pop 	 [84]
00001159 	 A0000003 	 00000055 	  pop 	 [85]
00001160 	 A0000003 	 00000056 	  pop 	 [86]
00001161 	 00000013 	 00002D17 	 call 	 black
00001162 	 A0000003 	 00000057 	  pop 	 [87]
00001163 	 A0000003 	 00000058 	  pop 	 [88]
00001164 	 A0000003 	 00000059 	  pop 	 [89]
00001165 	 00000013 	 00002D1E 	 call 	 gray
00001166 	 A0000003 	 0000005A 	  pop 	 [90]
00001167 	 A0000003 	 0000005B 	  pop 	 [91]
00001168 	 A0000003 	 0000005C 	  pop 	 [92]
00001169 	 00000013 	 00002D17 	 call 	 black
00001170 	 A0000003 	 0000005D 	  pop 	 [93]
00001171 	 A0000003 	 0000005E 	  pop 	 [94]
00001172 	 A0000003 	 0000005F 	  pop 	 [95]
00001173 	 00000013 	 00002D1E 	 call 	 gray
00001174 	 A0000003 	 00000060 	  pop 	 [96]
00001175 	 A0000003 	 00000061 	  pop 	 [97]
00001176 	 A0000003 	 00000062 	  pop 	 [98]
00001177 	 00000013 	 00002D17 	 call 	 black
00001178 	 A0000003 	 00000063 	  pop 	 [99]
00001179 	 A0000003 	 00000064 	  pop 	 [100]
00001180 	 A0000003 	 00000065 	  pop 	 [101]
00001181 	 00000013 	 00002D1E 	 call 	 gray
00001182 	 A0000003 	 00000066 	  pop 	 [102]
00001183 	 A0000003 	 00000067 	  pop 	 [103]
00001184 	 A0000003 	 00000068 	  pop 	 [104]
00001185 	 00000013 	 00002D17 	 call 	 black
00001186 	 A0000003 	 00000069 	  pop 	 [105]
00001187 	 A0000003 	 0000006A 	  pop 	 [106]
00001188 	 A0000003 	 0000006B 	  pop 	 [107]
00001189 	 00000013 	 00002D1E 	 call 	 gray
00001190 	 A0000003 	 0000006C 	  pop 	 [108]
00001191 	 A0000003 	 0000006D 	  pop 	 [109]
00001192 	 A0000003 	 0000006E 	  pop 	 [110]
00001193 	 00000013 	 00002D17 	 call 	 black
00001194 	 A0000003 	 0000006F 	  pop 	 [111]
00001195 	 A0000003 	 00000070 	  pop 	 [112]
00001196 	 A0000003 	 00000071 	  pop 	 [113]
00001197 	 00000013 	 00002D1E 	 call 	 gray
00001198 	 A0000003 	 00000072 	  pop 	 [114]
00001199 	 A0000003 	 00000073 	  pop 	 [115]
00001200 	 A0000003 	 00000074 	  pop 	 [116]
00001201 	 00000013 	 00002D17 	 call 	 black
00001202 	 A0000003 	 00000075 	  pop 	 [117]
00001203 	 A0000003 	 00000076 	  pop 	 [118]
00001204 	 A0000003 	 00000077 	  pop 	 [119]
00001205 	 00000013 	 00002D1E 	 call 	 gray
00001206 	 A0000003 	 00000078 	  pop 	 [120]
00001207 	 A0000003 	 00000079 	  pop 	 [121]
00001208 	 A0000003 	 0000007A 	  pop 	 [122]
00001209 	 00000013 	 00002D17 	 call 	 black
00001210 	 A0000003 	 0000007B 	  pop 	 [123]
00001211 	 A0000003 	 0000007C 	  pop 	 [124]
00001212 	 A0000003 	 0000007D 	  pop 	 [125]
00001213 	 00000013 	 00002D1E 	 call 	 gray
00001214 	 A0000003 	 0000007E 	  pop 	 [126]
00001215 	 A0000003 	 0000007F 	  pop 	 [127]
00001216 	 A0000003 	 00000080 	  pop 	 [128]
00001217 	 00000013 	 00002D17 	 call 	 black
00001218 	 A0000003 	 00000081 	  pop 	 [129]
00001219 	 A0000003 	 00000082 	  pop 	 [130]
00001220 	 A0000003 	 00000083 	  pop 	 [131]
00001221 	 00000013 	 00002D1E 	 call 	 gray
00001222 	 A0000003 	 00000084 	  pop 	 [132]
00001223 	 A0000003 	 00000085 	  pop 	 [133]
00001224 	 A0000003 	 00000086 	  pop 	 [134]
00001225 	 00000013 	 00002D17 	 call 	 black
00001226 	 A0000003 	 00000087 	  pop 	 [135]
00001227 	 A0000003 	 00000088 	  pop 	 [136]
00001228 	 A0000003 	 00000089 	  pop 	 [137]
00001229 	 00000013 	 00002D1E 	 call 	 gray
00001230 	 A0000003 	 0000008A 	  pop 	 [138]
00001231 	 A0000003 	 0000008B 	  pop 	 [139]
00001232 	 A0000003 	 0000008C 	  pop 	 [140]
00001233 	 00000013 	 00002D17 	 call 	 black
00001234 	 A0000003 	 0000008D 	  pop 	 [141]
00001235 	 A0000003 	 0000008E 	  pop 	 [142]
00001236 	 A0000003 	 0000008F 	  pop 	 [143]
00001237 	 00000013 	 00002D1E 	 call 	 gray
00001238 	 A0000003 	 00000090 	  pop 	 [144]
00001239 	 A0000003 	 00000091 	  pop 	 [145]
00001240 	 A0000003 	 00000092 	  pop 	 [146]
00001241 	 00000013 	 00002D17 	 call 	 black
00001242 	 A0000003 	 00000093 	  pop 	 [147]
00001243 	 A0000003 	 00000094 	  pop 	 [148]
00001244 	 A0000003 	 00000095 	  pop 	 [149]
00001245 	 00000013 	 00002D1E 	 call 	 gray
00001246 	 A0000003 	 00000096 	  pop 	 [150]
00001247 	 A0000003 	 00000097 	  pop 	 [151]
00001248 	 A0000003 	 00000098 	  pop 	 [152]
00001249 	 00000013 	 00002D17 	 call 	 black
00001250 	 A0000003 	 00000099 	  pop 	 [153]
00001251 	 A0000003 	 0000009A 	  pop 	 [154]
00001252 	 A0000003 	 0000009B 	  pop 	 [155]
00001253 	 00000013 	 00002D1E 	 call 	 gray
00001254 	 A0000003 	 0000009C 	  pop 	 [156]
00001255 	 A0000003 	 0000009D 	  pop 	 [157]
00001256 	 A0000003 	 0000009E 	  pop 	 [158]
00001257 	 00000013 	 00002D17 	 call 	 black
00001258 	 A0000003 	 0000009F 	  pop 	 [159]
00001259 	 A0000003 	 000000A0 	  pop 	 [160]
00001260 	 A0000003 	 000000A1 	  pop 	 [161]
00001261 	 00000013 	 00002D1E 	 call 	 gray
00001262 	 A0000003 	 000000A2 	  pop 	 [162]
00001263 	 A0000003 	 000000A3 	  pop 	 [163]
00001264 	 A0000003 	 000000A4 	  pop 	 [164]
00001265 	 00000013 	 00002D17 	 call 	 black
00001266 	 A0000003 	 000000A5 	  pop 	 [165]
00001267 	 A0000003 	 000000A6 	  pop 	 [166]
00001268 	 A0000003 	 000000A7 	  pop 	 [167]
00001269 	 00000013 	 00002D1E 	 call 	 gray
00001270 	 A0000003 	 000000A8 	  pop 	 [168]
00001271 	 A0000003 	 000000A9 	  pop 	 [169]
00001272 	 A0000003 	 000000AA 	  pop 	 [170]
00001273 	 00000013 	 00002D17 	 call 	 black
00001274 	 A0000003 	 000000AB 	  pop 	 [171]
00001275 	 A0000003 	 000000AC 	  pop 	 [172]
00001276 	 A0000003 	 000000AD 	  pop 	 [173]
00001277 	 00000013 	 00002D1E 	 call 	 gray
00001278 	 A0000003 	 000000AE 	  pop 	 [174]
00001279 	 A0000003 	 000000AF 	  pop 	 [175]
00001280 	 A0000003 	 000000B0 	  pop 	 [176]
00001281 	 00000013 	 00002D17 	 call 	 black
00001282 	 A0000003 	 000000B1 	  pop 	 [177]
00001283 	 A0000003 	 000000B2 	  pop 	 [178]
00001284 	 A0000003 	 000000B3 	  pop 	 [179]
00001285 	 00000013 	 00002D1E 	 call 	 gray
00001286 	 A0000003 	 000000B4 	  pop 	 [180]
00001287 	 A0000003 	 000000B5 	  pop 	 [181]
00001288 	 A0000003 	 000000B6 	  pop 	 [182]
00001289 	 00000013 	 00002D17 	 call 	 black
00001290 	 A0000003 	 000000B7 	  pop 	 [183]
00001291 	 A0000003 	 000000B8 	  pop 	 [184]
00001292 	 A0000003 	 000000B9 	  pop 	 [185]
00001293 	 00000013 	 00002D1E 	 call 	 gray
00001294 	 A0000003 	 000000BA 	  pop 	 [186]
00001295 	 A0000003 	 000000BB 	  pop 	 [187]
00001296 	 A0000003 	 000000BC 	  pop 	 [188]
00001297 	 00000013 	 00002D17 	 call 	 black
00001298 	 A0000003 	 000000BD 	  pop 	 [189]
00001299 	 A0000003 	 000000BE 	  pop 	 [190]
00001300 	 A0000003 	 000000BF 	  pop 	 [191]
00001301 	 00000013 	 00002D1E 	 call 	 gray
00001302 	 A0000003 	 000000C0 	  pop 	 [192]
00001303 	 A0000003 	 000000C1 	  pop 	 [193]
00001304 	 A0000003 	 000000C2 	  pop 	 [194]
00001305 	 00000013 	 00002D17 	 call 	 black
00001306 	 A0000003 	 000000C3 	  pop 	 [195]
00001307 	 A0000003 	 000000C4 	  pop 	 [196]
00001308 	 A0000003 	 000000C5 	  pop 	 [197]
00001309 	 00000013 	 00002D1E 	 call 	 gray
00001310 	 A0000003 	 000000C6 	  pop 	 [198]
00001311 	 A0000003 	 000000C7 	  pop 	 [199]
00001312 	 A0000003 	 000000C8 	  pop 	 [200]
00001313 	 00000013 	 00002D17 	 call 	 black
00001314 	 A0000003 	 000000C9 	  pop 	 [201]
00001315 	 A0000003 	 000000CA 	  pop 	 [202]
00001316 	 A0000003 	 000000CB 	  pop 	 [203]
00001317 	 00000013 	 00002D1E 	 call 	 gray
00001318 	 A0000003 	 000000CC 	  pop 	 [204]
00001319 	 A0000003 	 000000CD 	  pop 	 [205]
00001320 	 A0000003 	 000000CE 	  pop 	 [206]
00001321 	 00000013 	 00002D17 	 call 	 black
00001322 	 A0000003 	 000000CF 	  pop 	 [207]
00001323 	 A0000003 	 000000D0 	  pop 	 [208]
00001324 	 A0000003 	 000000D1 	  pop 	 [209]
00001325 	 00000013 	 00002D1E 	 call 	 gray
00001326 	 A0000003 	 000000D2 	  pop 	 [210]
00001327 	 A0000003 	 000000D3 	  pop 	 [211]
00001328 	 A0000003 	 000000D4 	  pop 	 [212]
00001329 	 00000013 	 00002D17 	 call 	 black
00001330 	 A0000003 	 000000D5 	  pop 	 [213]
00001331 	 A0000003 	 000000D6 	  pop 	 [214]
00001332 	 A0000003 	 000000D7 	  pop 	 [215]
00001333 	 00000013 	 00002CD8 	 call 	 rb2
00001334 	 A0000003 	 000000D8 	  pop 	 [216]
00001335 	 A0000003 	 000000D9 	  pop 	 [217]
00001336 	 A0000003 	 000000DA 	  pop 	 [218]
00001337 	 00000013 	 00002CD8 	 call 	 rb2
00001338 	 A0000003 	 000000DB 	  pop 	 [219]
00001339 	 A0000003 	 000000DC 	  pop 	 [220]
00001340 	 A0000003 	 000000DD 	  pop 	 [221]
00001341 	 00000013 	 00002CD8 	 call 	 rb2
00001342 	 A0000003 	 000000DE 	  pop 	 [222]
00001343 	 A0000003 	 000000DF 	  pop 	 [223]
00001344 	 A0000003 	 000000E0 	  pop 	 [224]
00001345 	 00000013 	 00002CD8 	 call 	 rb2
00001346 	 A0000003 	 000000E1 	  pop 	 [225]
00001347 	 A0000003 	 000000E2 	  pop 	 [226]
00001348 	 A0000003 	 000000E3 	  pop 	 [227]
00001349 	 00000013 	 00002CD8 	 call 	 rb2
00001350 	 A0000003 	 000000E4 	  pop 	 [228]
00001351 	 A0000003 	 000000E5 	  pop 	 [229]
00001352 	 A0000003 	 000000E6 	  pop 	 [230]
00001353 	 00000013 	 00002D17 	 call 	 black
00001354 	 A0000003 	 000000E7 	  pop 	 [231]
00001355 	 A0000003 	 000000E8 	  pop 	 [232]
00001356 	 A0000003 	 000000E9 	  pop 	 [233]
00001357 	 00000013 	 00002D1E 	 call 	 gray
00001358 	 A0000003 	 000000EA 	  pop 	 [234]
00001359 	 A0000003 	 000000EB 	  pop 	 [235]
00001360 	 A0000003 	 000000EC 	  pop 	 [236]
00001361 	 00000013 	 00002D17 	 call 	 black
00001362 	 A0000003 	 000000ED 	  pop 	 [237]
00001363 	 A0000003 	 000000EE 	  pop 	 [238]
00001364 	 A0000003 	 000000EF 	  pop 	 [239]
00001365 	 00000013 	 00002CD8 	 call 	 rb2
00001366 	 A0000003 	 000000F0 	  pop 	 [240]
00001367 	 A0000003 	 000000F1 	  pop 	 [241]
00001368 	 A0000003 	 000000F2 	  pop 	 [242]
00001369 	 00000013 	 00002CD8 	 call 	 rb2
00001370 	 A0000003 	 000000F3 	  pop 	 [243]
00001371 	 A0000003 	 000000F4 	  pop 	 [244]
00001372 	 A0000003 	 000000F5 	  pop 	 [245]
00001373 	 00000013 	 00002CD8 	 call 	 rb2
00001374 	 A0000003 	 000000F6 	  pop 	 [246]
00001375 	 A0000003 	 000000F7 	  pop 	 [247]
00001376 	 A0000003 	 000000F8 	  pop 	 [248]
00001377 	 00000013 	 00002CD8 	 call 	 rb2
00001378 	 A0000003 	 000000F9 	  pop 	 [249]
00001379 	 A0000003 	 000000FA 	  pop 	 [250]
00001380 	 A0000003 	 000000FB 	  pop 	 [251]
00001381 	 00000013 	 00002CD8 	 call 	 rb2
00001382 	 A0000003 	 000000FC 	  pop 	 [252]
00001383 	 A0000003 	 000000FD 	  pop 	 [253]
00001384 	 A0000003 	 000000FE 	  pop 	 [254]
00001385 	 00000013 	 00002CD8 	 call 	 rb2
00001386 	 A0000003 	 000000FF 	  pop 	 [255]
00001387 	 A0000003 	 00000100 	  pop 	 [256]
00001388 	 A0000003 	 00000101 	  pop 	 [257]
00001389 	 00000013 	 00002CD8 	 call 	 rb2
00001390 	 A0000003 	 00000102 	  pop 	 [258]
00001391 	 A0000003 	 00000103 	  pop 	 [259]
00001392 	 A0000003 	 00000104 	  pop 	 [260]
00001393 	 00000013 	 00002CD8 	 call 	 rb2
00001394 	 A0000003 	 00000105 	  pop 	 [261]
00001395 	 A0000003 	 00000106 	  pop 	 [262]
00001396 	 A0000003 	 00000107 	  pop 	 [263]
00001397 	 00000013 	 00002CD8 	 call 	 rb2
00001398 	 A0000003 	 00000108 	  pop 	 [264]
00001399 	 A0000003 	 00000109 	  pop 	 [265]
00001400 	 A0000003 	 0000010A 	  pop 	 [266]
00001401 	 00000013 	 00002D17 	 call 	 black
00001402 	 A0000003 	 0000010B 	  pop 	 [267]
00001403 	 A0000003 	 0000010C 	  pop 	 [268]
00001404 	 A0000003 	 0000010D 	  pop 	 [269]
00001405 	 00000013 	 00002D1E 	 call 	 gray
00001406 	 A0000003 	 0000010E 	  pop 	 [270]
00001407 	 A0000003 	 0000010F 	  pop 	 [271]
00001408 	 A0000003 	 00000110 	  pop 	 [272]
00001409 	 00000013 	 00002D17 	 call 	 black
00001410 	 A0000003 	 00000111 	  pop 	 [273]
00001411 	 A0000003 	 00000112 	  pop 	 [274]
00001412 	 A0000003 	 00000113 	  pop 	 [275]
00001413 	 00000013 	 00002D1E 	 call 	 gray
00001414 	 A0000003 	 00000114 	  pop 	 [276]
00001415 	 A0000003 	 00000115 	  pop 	 [277]
00001416 	 A0000003 	 00000116 	  pop 	 [278]
00001417 	 00000013 	 00002D17 	 call 	 black
00001418 	 A0000003 	 00000117 	  pop 	 [279]
00001419 	 A0000003 	 00000118 	  pop 	 [280]
00001420 	 A0000003 	 00000119 	  pop 	 [281]
00001421 	 00000013 	 00002D1E 	 call 	 gray
00001422 	 A0000003 	 0000011A 	  pop 	 [282]
00001423 	 A0000003 	 0000011B 	  pop 	 [283]
00001424 	 A0000003 	 0000011C 	  pop 	 [284]
00001425 	 00000013 	 00002D17 	 call 	 black
00001426 	 A0000003 	 0000011D 	  pop 	 [285]
00001427 	 A0000003 	 0000011E 	  pop 	 [286]
00001428 	 A0000003 	 0000011F 	  pop 	 [287]
00001429 	 00000013 	 00002CD8 	 call 	 rb2
00001430 	 A0000003 	 00000138 	  pop 	 [312]
00001431 	 A0000003 	 00000139 	  pop 	 [313]
00001432 	 A0000003 	 0000013A 	  pop 	 [314]
00001433 	 00000013 	 00002CD8 	 call 	 rb2
00001434 	 A0000003 	 00000147 	  pop 	 [327]
00001435 	 A0000003 	 00000148 	  pop 	 [328]
00001436 	 A0000003 	 00000149 	  pop 	 [329]
00001437 	 00000013 	 00002CD8 	 call 	 rb2
00001438 	 A0000003 	 0000015C 	  pop 	 [348]
00001439 	 A0000003 	 0000015D 	  pop 	 [349]
00001440 	 A0000003 	 0000015E 	  pop 	 [350]
00001441 	 00000013 	 00002CD8 	 call 	 rb2
00001442 	 A0000003 	 000001BC 	  pop 	 [444]
00001443 	 A0000003 	 000001BD 	  pop 	 [445]
00001444 	 A0000003 	 000001BE 	  pop 	 [446]
00001445 	 00000013 	 00002CD8 	 call 	 rb2
00001446 	 A0000003 	 0000021C 	  pop 	 [540]
00001447 	 A0000003 	 0000021D 	  pop 	 [541]
00001448 	 A0000003 	 0000021E 	  pop 	 [542]
00001449 	 00000013 	 00002CD8 	 call 	 rb2
00001450 	 A0000003 	 0000027C 	  pop 	 [636]
00001451 	 A0000003 	 0000027D 	  pop 	 [637]
00001452 	 A0000003 	 0000027E 	  pop 	 [638]
00001453 	 00000013 	 00002CD8 	 call 	 rb2
00001454 	 A0000003 	 000002DC 	  pop 	 [732]
00001455 	 A0000003 	 000002DD 	  pop 	 [733]
00001456 	 A0000003 	 000002DE 	  pop 	 [734]
00001457 	 00000013 	 00002CD8 	 call 	 rb2
00001458 	 A0000003 	 0000033C 	  pop 	 [828]
00001459 	 A0000003 	 0000033D 	  pop 	 [829]
00001460 	 A0000003 	 0000033E 	  pop 	 [830]
00001461 	 00000013 	 00002CD8 	 call 	 rb2
00001462 	 A0000003 	 0000039C 	  pop 	 [924]
00001463 	 A0000003 	 0000039D 	  pop 	 [925]
00001464 	 A0000003 	 0000039E 	  pop 	 [926]
00001465 	 00000013 	 00002CD8 	 call 	 rb2
00001466 	 A0000003 	 000003FC 	  pop 	 [1020]
00001467 	 A0000003 	 000003FD 	  pop 	 [1021]
00001468 	 A0000003 	 000003FE 	  pop 	 [1022]
00001469 	 00000013 	 00002CD8 	 call 	 rb2
00001470 	 A0000003 	 0000045C 	  pop 	 [1116]
00001471 	 A0000003 	 0000045D 	  pop 	 [1117]
00001472 	 A0000003 	 0000045E 	  pop 	 [1118]
00001473 	 00000013 	 00002CD8 	 call 	 rb2
00001474 	 A0000003 	 000004BC 	  pop 	 [1212]
00001475 	 A0000003 	 000004BD 	  pop 	 [1213]
00001476 	 A0000003 	 000004BE 	  pop 	 [1214]
00001477 	 00000013 	 00002CD8 	 call 	 rb2
00001478 	 A0000003 	 0000051C 	  pop 	 [1308]
00001479 	 A0000003 	 0000051D 	  pop 	 [1309]
00001480 	 A0000003 	 0000051E 	  pop 	 [1310]
00001481 	 00000013 	 00002CD8 	 call 	 rb2
00001482 	 A0000003 	 0000057C 	  pop 	 [1404]
00001483 	 A0000003 	 0000057D 	  pop 	 [1405]
00001484 	 A0000003 	 0000057E 	  pop 	 [1406]
00001485 	 00000013 	 00002CD8 	 call 	 rb2
00001486 	 A0000003 	 000005DC 	  pop 	 [1500]
00001487 	 A0000003 	 000005DD 	  pop 	 [1501]
00001488 	 A0000003 	 000005DE 	  pop 	 [1502]
00001489 	 00000013 	 00002CD8 	 call 	 rb2
00001490 	 A0000003 	 00000198 	  pop 	 [408]
00001491 	 A0000003 	 00000199 	  pop 	 [409]
00001492 	 A0000003 	 0000019A 	  pop 	 [410]
00001493 	 00000013 	 00002CD8 	 call 	 rb2
00001494 	 A0000003 	 000001A7 	  pop 	 [423]
00001495 	 A0000003 	 000001A8 	  pop 	 [424]
00001496 	 A0000003 	 000001A9 	  pop 	 [425]
00001497 	 00000013 	 00002CD8 	 call 	 rb2
00001498 	 A0000003 	 000001F8 	  pop 	 [504]
00001499 	 A0000003 	 000001F9 	  pop 	 [505]
00001500 	 A0000003 	 000001FA 	  pop 	 [506]
00001501 	 00000013 	 00002CD8 	 call 	 rb2
00001502 	 A0000003 	 00000207 	  pop 	 [519]
00001503 	 A0000003 	 00000208 	  pop 	 [520]
00001504 	 A0000003 	 00000209 	  pop 	 [521]
00001505 	 00000013 	 00002CD8 	 call 	 rb2
00001506 	 A0000003 	 00000258 	  pop 	 [600]
00001507 	 A0000003 	 00000259 	  pop 	 [601]
00001508 	 A0000003 	 0000025A 	  pop 	 [602]
00001509 	 00000013 	 00002CD8 	 call 	 rb2
00001510 	 A0000003 	 00000267 	  pop 	 [615]
00001511 	 A0000003 	 00000268 	  pop 	 [616]
00001512 	 A0000003 	 00000269 	  pop 	 [617]
00001513 	 00000013 	 00002CD8 	 call 	 rb2
00001514 	 A0000003 	 000002B8 	  pop 	 [696]
00001515 	 A0000003 	 000002B9 	  pop 	 [697]
00001516 	 A0000003 	 000002BA 	  pop 	 [698]
00001517 	 00000013 	 00002CD8 	 call 	 rb2
00001518 	 A0000003 	 000002BB 	  pop 	 [699]
00001519 	 A0000003 	 000002BC 	  pop 	 [700]
00001520 	 A0000003 	 000002BD 	  pop 	 [701]
00001521 	 00000013 	 00002CD8 	 call 	 rb2
00001522 	 A0000003 	 000002BE 	  pop 	 [702]
00001523 	 A0000003 	 000002BF 	  pop 	 [703]
00001524 	 A0000003 	 000002C0 	  pop 	 [704]
00001525 	 00000013 	 00002CD8 	 call 	 rb2
00001526 	 A0000003 	 000002C1 	  pop 	 [705]
00001527 	 A0000003 	 000002C2 	  pop 	 [706]
00001528 	 A0000003 	 000002C3 	  pop 	 [707]
00001529 	 00000013 	 00002CD8 	 call 	 rb2
00001530 	 A0000003 	 000002C4 	  pop 	 [708]
00001531 	 A0000003 	 000002C5 	  pop 	 [709]
00001532 	 A0000003 	 000002C6 	  pop 	 [710]
00001533 	 00000013 	 00002CD8 	 call 	 rb2
00001534 	 A0000003 	 00000318 	  pop 	 [792]
00001535 	 A0000003 	 00000319 	  pop 	 [793]
00001536 	 A0000003 	 0000031A 	  pop 	 [794]
00001537 	 00000013 	 00002CD8 	 call 	 rb2
00001538 	 A0000003 	 00000378 	  pop 	 [888]
00001539 	 A0000003 	 00000379 	  pop 	 [889]
00001540 	 A0000003 	 0000037A 	  pop 	 [890]
00001541 	 00000013 	 00002CD8 	 call 	 rb2
00001542 	 A0000003 	 000003D8 	  pop 	 [984]
00001543 	 A0000003 	 000003D9 	  pop 	 [985]
00001544 	 A0000003 	 000003DA 	  pop 	 [986]
00001545 	 00000013 	 00002CD8 	 call 	 rb2
00001546 	 A0000003 	 00000438 	  pop 	 [1080]
00001547 	 A0000003 	 00000439 	  pop 	 [1081]
00001548 	 A0000003 	 0000043A 	  pop 	 [1082]
00001549 	 00000013 	 00002CD8 	 call 	 rb2
00001550 	 A0000003 	 00000498 	  pop 	 [1176]
00001551 	 A0000003 	 00000499 	  pop 	 [1177]
00001552 	 A0000003 	 0000049A 	  pop 	 [1178]
00001553 	 00000013 	 00002CD8 	 call 	 rb2
00001554 	 A0000003 	 000004F8 	  pop 	 [1272]
00001555 	 A0000003 	 000004F9 	  pop 	 [1273]
00001556 	 A0000003 	 000004FA 	  pop 	 [1274]
00001557 	 00000013 	 00002CD8 	 call 	 rb2
00001558 	 A0000003 	 00000558 	  pop 	 [1368]
00001559 	 A0000003 	 00000559 	  pop 	 [1369]
00001560 	 A0000003 	 0000055A 	  pop 	 [1370]
00001561 	 00000013 	 00002CD8 	 call 	 rb2
00001562 	 A0000003 	 000005B8 	  pop 	 [1464]
00001563 	 A0000003 	 000005B9 	  pop 	 [1465]
00001564 	 A0000003 	 000005BA 	  pop 	 [1466]
00001565 	 00000016 	          	 scan
00001566 	 00000017 	          	 draw
00001567 	 00000013 	 00002D1E 	 call 	 gray
00001568 	 A0000003 	 00000000 	  pop 	 [0]
00001569 	 A0000003 	 00000001 	  pop 	 [1]
00001570 	 A0000003 	 00000002 	  pop 	 [2]
00001571 	 00000013 	 00002D17 	 call 	 black
00001572 	 A0000003 	 00000003 	  pop 	 [3]
00001573 	 A0000003 	 00000004 	  pop 	 [4]
00001574 	 A0000003 	 00000005 	  pop 	 [5]
00001575 	 00000013 	 00002D1E 	 call 	 gray
00001576 	 A0000003 	 00000006 	  pop 	 [6]
00001577 	 A0000003 	 00000007 	  pop 	 [7]
00001578 	 A0000003 	 00000008 	  pop 	 [8]
00001579 	 00000013 	 00002D17 	 call 	 black
00001580 	 A0000003 	 00000009 	  pop 	 [9]
00001581 	 A0000003 	 0000000A 	  pop 	 [10]
00001582 	 A0000003 	 0000000B 	  pop 	 [11]
00001583 	 00000013 	 00002D1E 	 call 	 gray
00001584 	 A0000003 	 0000000C 	  pop 	 [12]
00001585 	 A0000003 	 0000000D 	  pop 	 [13]
00001586 	 A0000003 	 0000000E 	  pop 	 [14]
00001587 	 00000013 	 00002D17 	 call 	 black
00001588 	 A0000003 	 0000000F 	  pop 	 [15]
00001589 	 A0000003 	 00000010 	  pop 	 [16]
00001590 	 A0000003 	 00000011 	  pop 	 [17]
00001591 	 00000013 	 00002D1E 	 call 	 gray
00001592 	 A0000003 	 00000012 	  pop 	 [18]
00001593 	 A0000003 	 00000013 	  pop 	 [19]
00001594 	 A0000003 	 00000014 	  pop 	 [20]
00001595 	 00000013 	 00002D17 	 call 	 black
00001596 	 A0000003 	 00000015 	  pop 	 [21]
00001597 	 A0000003 	 00000016 	  pop 	 [22]
00001598 	 A0000003 	 00000017 	  pop 	 [23]
00001599 	 00000013 	 00002D1E 	 call 	 gray
00001600 	 A0000003 	 00000018 	  pop 	 [24]
00001601 	 A0000003 	 00000019 	  pop 	 [25]
00001602 	 A0000003 	 0000001A 	  pop 	 [26]
00001603 	 00000013 	 00002D17 	 call 	 black
00001604 	 A0000003 	 0000001B 	  pop 	 [27]
00001605 	 A0000003 	 0000001C 	  pop 	 [28]
00001606 	 A0000003 	 0000001D 	  pop 	 [29]
00001607 	 00000013 	 00002D1E 	 call 	 gray
00001608 	 A0000003 	 0000001E 	  pop 	 [30]
00001609 	 A0000003 	 0000001F 	  pop 	 [31]
00001610 	 A0000003 	 00000020 	  pop 	 [32]
00001611 	 00000013 	 00002D17 	 call 	 black
00001612 	 A0000003 	 00000021 	  pop 	 [33]
00001613 	 A0000003 	 00000022 	  pop 	 [34]
00001614 	 A0000003 	 00000023 	  pop 	 [35]
00001615 	 00000013 	 00002D1E 	 call 	 gray
00001616 	 A0000003 	 00000024 	  pop 	 [36]
00001617 	 A0000003 	 00000025 	  pop 	 [37]
00001618 	 A0000003 	 00000026 	  pop 	 [38]
00001619 	 00000013 	 00002D17 	 call 	 black
00001620 	 A0000003 	 00000027 	  pop 	 [39]
00001621 	 A0000003 	 00000028 	  pop 	 [40]
00001622 	 A0000003 	 00000029 	  pop 	 [41]
00001623 	 00000013 	 00002D1E 	 call 	 gray
00001624 	 A0000003 	 0000002A 	  pop 	 [42]
00001625 	 A0000003 	 0000002B 	  pop 	 [43]
00001626 	 A0000003 	 0000002C 	  pop 	 [44]
00001627 	 00000013 	 00002D17 	 call 	 black
00001628 	 A0000003 	 0000002D 	  pop 	 [45]
00001629 	 A0000003 	 0000002E 	  pop 	 [46]
00001630 	 A0000003 	 0000002F 	  pop 	 [47]
00001631 	 00000013 	 00002D1E 	 call 	 gray
00001632 	 A0000003 	 00000030 	  pop 	 [48]
00001633 	 A0000003 	 00000031 	  pop 	 [49]
00001634 	 A0000003 	 00000032 	  pop 	 [50]
00001635 	 00000013 	 00002D17 	 call 	 black
00001636 	 A0000003 	 00000033 	  pop 	 [51]
00001637 	 A0000003 	 00000034 	  pop 	 [52]
00001638 	 A0000003 	 00000035 	  pop 	 [53]
00001639 	 00000013 	 00002D1E 	 call 	 gray
00001640 	 A0000003 	 00000036 	  pop 	 [54]
00001641 	 A0000003 	 00000037 	  pop 	 [55]
00001642 	 A0000003 	 00000038 	  pop 	 [56]
00001643 	 00000013 	 00002D17 	 call 	 black
00001644 	 A0000003 	 00000039 	  pop 	 [57]
00001645 	 A0000003 	 0000003A 	  pop 	 [58]
00001646 	 A0000003 	 0000003B 	  pop 	 [59]
00001647 	 00000013 	 00002D1E 	 call 	 gray
00001648 	 A0000003 	 0000003C 	  pop 	 [60]
00001649 	 A0000003 	 0000003D 	  pop 	 [61]
00001650 	 A0000003 	 0000003E 	  pop 	 [62]
00001651 	 00000013 	 00002D17 	 call 	 black
00001652 	 A0000003 	 0000003F 	  pop 	 [63]
00001653 	 A0000003 	 00000040 	  pop 	 [64]
00001654 	 A0000003 	 00000041 	  pop 	 [65]
00001655 	 00000013 	 00002D1E 	 call 	 gray
00001656 	 A0000003 	 00000042 	  pop 	 [66]
00001657 	 A0000003 	 00000043 	  pop 	 [67]
00001658 	 A0000003 	 00000044 	  pop 	 [68]
00001659 	 00000013 	 00002D17 	 call 	 black
00001660 	 A0000003 	 00000045 	  pop 	 [69]
00001661 	 A0000003 	 00000046 	  pop 	 [70]
00001662 	 A0000003 	 00000047 	  pop 	 [71]
00001663 	 00000013 	 00002D1E 	 call 	 gray
00001664 	 A0000003 	 00000048 	  pop 	 [72]
00001665 	 A0000003 	 00000049 	  pop 	 [73]
00001666 	 A0000003 	 0000004A 	  pop 	 [74]
00001667 	 00000013 	 00002D17 	 call 	 black
00001668 	 A0000003 	 0000004B 	  pop 	 [75]
00001669 	 A0000003 	 0000004C 	  pop 	 [76]
00001670 	 A0000003 	 0000004D 	  pop 	 [77]
00001671 	 00000013 	 00002D1E 	 call 	 gray
00001672 	 A0000003 	 0000004E 	  pop 	 [78]
00001673 	 A0000003 	 0000004F 	  pop 	 [79]
00001674 	 A0000003 	 00000050 	  pop 	 [80]
00001675 	 00000013 	 00002D17 	 call 	 black
00001676 	 A0000003 	 00000051 	  pop 	 [81]
00001677 	 A0000003 	 00000052 	  pop 	 [82]
00001678 	 A0000003 	 00000053 	  pop 	 [83]
00001679 	 00000013 	 00002D1E 	 call 	 gray
00001680 	 A0000003 	 00000054 	  pop 	 [84]
00001681 	 A0000003 	 00000055 	  pop 	 [85]
00001682 	 A0000003 	 00000056 	  pop 	 [86]
00001683 	 00000013 	 00002D17 	 call 	 black
00001684 	 A0000003 	 00000057 	  pop 	 [87]
00001685 	 A0000003 	 00000058 	  pop 	 [88]
00001686 	 A0000003 	 00000059 	  pop 	 [89]
00001687 	 00000013 	 00002D1E 	 call 	 gray
00001688 	 A0000003 	 0000005A 	  pop 	 [90]
00001689 	 A0000003 	 0000005B 	  pop 	 [91]
00001690 	 A0000003 	 0000005C 	  pop 	 [92]
00001691 	 00000013 	 00002D17 	 call 	 black
00001692 	 A0000003 	 0000005D 	  pop 	 [93]
00001693 	 A0000003 	 0000005E 	  pop 	 [94]
00001694 	 A0000003 	 0000005F 	  pop 	 [95]
00001695 	 00000013 	 00002D1E 	 call 	 gray
00001696 	 A0000003 	 00000060 	  pop 	 [96]
00001697 	 A0000003 	 00000061 	  pop 	 [97]
00001698 	 A0000003 	 00000062 	  pop 	 [98]
00001699 	 00000013 	 00002D17 	 call 	 black
00001700 	 A0000003 	 00000063 	  pop 	 [99]
00001701 	 A0000003 	 00000064 	  pop 	 [100]
00001702 	 A0000003 	 00000065 	  pop 	 [101]
00001703 	 00000013 	 00002D1E 	 call 	 gray
00001704 	 A0000003 	 00000066 	  pop 	 [102]
00001705 	 A0000003 	 00000067 	  pop 	 [103]
00001706 	 A0000003 	 00000068 	  pop 	 [104]
00001707 	 00000013 	 00002D17 	 call 	 black
00001708 	 A0000003 	 00000069 	  pop 	 [105]
00001709 	 A0000003 	 0000006A 	  pop 	 [106]
00001710 	 A0000003 	 0000006B 	  pop 	 [107]
00001711 	 00000013 	 00002D1E 	 call 	 gray
00001712 	 A0000003 	 0000006C 	  pop 	 [108]
00001713 	 A0000003 	 0000006D 	  pop 	 [109]
00001714 	 A0000003 	 0000006E 	  pop 	 [110]
00001715 	 00000013 	 00002D17 	 call 	 black
00001716 	 A0000003 	 0000006F 	  pop 	 [111]
00001717 	 A0000003 	 00000070 	  pop 	 [112]
00001718 	 A0000003 	 00000071 	  pop 	 [113]
00001719 	 00000013 	 00002D1E 	 call 	 gray
00001720 	 A0000003 	 00000072 	  pop 	 [114]
00001721 	 A0000003 	 00000073 	  pop 	 [115]
00001722 	 A0000003 	 00000074 	  pop 	 [116]
00001723 	 00000013 	 00002D17 	 call 	 black
00001724 	 A0000003 	 00000075 	  pop 	 [117]
00001725 	 A0000003 	 00000076 	  pop 	 [118]
00001726 	 A0000003 	 00000077 	  pop 	 [119]
00001727 	 00000013 	 00002D1E 	 call 	 gray
00001728 	 A0000003 	 00000078 	  pop 	 [120]
00001729 	 A0000003 	 00000079 	  pop 	 [121]
00001730 	 A0000003 	 0000007A 	  pop 	 [122]
00001731 	 00000013 	 00002D17 	 call 	 black
00001732 	 A0000003 	 0000007B 	  pop 	 [123]
00001733 	 A0000003 	 0000007C 	  pop 	 [124]
00001734 	 A0000003 	 0000007D 	  pop 	 [125]
00001735 	 00000013 	 00002D1E 	 call 	 gray
00001736 	 A0000003 	 0000007E 	  pop 	 [126]
00001737 	 A0000003 	 0000007F 	  pop 	 [127]
00001738 	 A0000003 	 00000080 	  pop 	 [128]
00001739 	 00000013 	 00002D17 	 call 	 black
00001740 	 A0000003 	 00000081 	  pop 	 [129]
00001741 	 A0000003 	 00000082 	  pop 	 [130]
00001742 	 A0000003 	 00000083 	  pop 	 [131]
00001743 	 00000013 	 00002D1E 	 call 	 gray
00001744 	 A0000003 	 00000084 	  pop 	 [132]
00001745 	 A0000003 	 00000085 	  pop 	 [133]
00001746 	 A0000003 	 00000086 	  pop 	 [134]
00001747 	 00000013 	 00002D17 	 call 	 black
00001748 	 A0000003 	 00000087 	  pop 	 [135]
00001749 	 A0000003 	 00000088 	  pop 	 [136]
00001750 	 A0000003 	 00000089 	  pop 	 [137]
00001751 	 00000013 	 00002D1E 	 call 	 gray
00001752 	 A0000003 	 0000008A 	  pop 	 [138]
00001753 	 A0000003 	 0000008B 	  pop 	 [139]
00001754 	 A0000003 	 0000008C 	  pop 	 [140]
00001755 	 00000013 	 00002D17 	 call 	 black
00001756 	 A0000003 	 0000008D 	  pop 	 [141]
00001757 	 A0000003 	 0000008E 	  pop 	 [142]
00001758 	 A0000003 	 0000008F 	  pop 	 [143]
00001759 	 00000013 	 00002D1E 	 call 	 gray
00001760 	 A0000003 	 00000090 	  pop 	 [144]
00001761 	 A0000003 	 00000091 	  pop 	 [145]
00001762 	 A0000003 	 00000092 	  pop 	 [146]
00001763 	 00000013 	 00002D17 	 call 	 black
00001764 	 A0000003 	 00000093 	  pop 	 [147]
00001765 	 A0000003 	 00000094 	  pop 	 [148]
00001766 	 A0000003 	 00000095 	  pop 	 [149]
00001767 	 00000013 	 00002D1E 	 call 	 gray
00001768 	 A0000003 	 00000096 	  pop 	 [150]
00001769 	 A0000003 	 00000097 	  pop 	 [151]
00001770 	 A0000003 	 00000098 	  pop 	 [152]
00001771 	 00000013 	 00002D17 	 call 	 black
00001772 	 A0000003 	 00000099 	  pop 	 [153]
00001773 	 A0000003 	 0000009A 	  pop 	 [154]
00001774 	 A0000003 	 0000009B 	  pop 	 [155]
00001775 	 00000013 	 00002D1E 	 call 	 gray
00001776 	 A0000003 	 0000009C 	  pop 	 [156]
00001777 	 A0000003 	 0000009D 	  pop 	 [157]
00001778 	 A0000003 	 0000009E 	  pop 	 [158]
00001779 	 00000013 	 00002D17 	 call 	 black
00001780 	 A0000003 	 0000009F 	  pop 	 [159]
00001781 	 A0000003 	 000000A0 	  pop 	 [160]
00001782 	 A0000003 	 000000A1 	  pop 	 [161]
00001783 	 00000013 	 00002D1E 	 call 	 gray
00001784 	 A0000003 	 000000A2 	  pop 	 [162]
00001785 	 A0000003 	 000000A3 	  pop 	 [163]
00001786 	 A0000003 	 000000A4 	  pop 	 [164]
00001787 	 00000013 	 00002D17 	 call 	 black
00001788 	 A0000003 	 000000A5 	  pop 	 [165]
00001789 	 A0000003 	 000000A6 	  pop 	 [166]
00001790 	 A0000003 	 000000A7 	  pop 	 [167]
00001791 	 00000013 	 00002D1E 	 call 	 gray
00001792 	 A0000003 	 000000A8 	  pop 	 [168]
00001793 	 A0000003 	 000000A9 	  pop 	 [169]
00001794 	 A0000003 	 000000AA 	  pop 	 [170]
00001795 	 00000013 	 00002D17 	 call 	 black
00001796 	 A0000003 	 000000AB 	  pop 	 [171]
00001797 	 A0000003 	 000000AC 	  pop 	 [172]
00001798 	 A0000003 	 000000AD 	  pop 	 [173]
00001799 	 00000013 	 00002D1E 	 call 	 gray
00001800 	 A0000003 	 000000AE 	  pop 	 [174]
00001801 	 A0000003 	 000000AF 	  pop 	 [175]
00001802 	 A0000003 	 000000B0 	  pop 	 [176]
00001803 	 00000013 	 00002D17 	 call 	 black
00001804 	 A0000003 	 000000B1 	  pop 	 [177]
00001805 	 A0000003 	 000000B2 	  pop 	 [178]
00001806 	 A0000003 	 000000B3 	  pop 	 [179]
00001807 	 00000013 	 00002D1E 	 call 	 gray
00001808 	 A0000003 	 000000B4 	  pop 	 [180]
00001809 	 A0000003 	 000000B5 	  pop 	 [181]
00001810 	 A0000003 	 000000B6 	  pop 	 [182]
00001811 	 00000013 	 00002D17 	 call 	 black
00001812 	 A0000003 	 000000B7 	  pop 	 [183]
00001813 	 A0000003 	 000000B8 	  pop 	 [184]
00001814 	 A0000003 	 000000B9 	  pop 	 [185]
00001815 	 00000013 	 00002D1E 	 call 	 gray
00001816 	 A0000003 	 000000BA 	  pop 	 [186]
00001817 	 A0000003 	 000000BB 	  pop 	 [187]
00001818 	 A0000003 	 000000BC 	  pop 	 [188]
00001819 	 00000013 	 00002D17 	 call 	 black
00001820 	 A0000003 	 000000BD 	  pop 	 [189]
00001821 	 A0000003 	 000000BE 	  pop 	 [190]
00001822 	 A0000003 	 000000BF 	  pop 	 [191]
00001823 	 00000013 	 00002D1E 	 call 	 gray
00001824 	 A0000003 	 000000C0 	  pop 	 [192]
00001825 	 A0000003 	 000000C1 	  pop 	 [193]
00001826 	 A0000003 	 000000C2 	  pop 	 [194]
00001827 	 00000013 	 00002D17 	 call 	 black
00001828 	 A0000003 	 000000C3 	  pop 	 [195]
00001829 	 A0000003 	 000000C4 	  pop 	 [196]
00001830 	 A0000003 	 000000C5 	  pop 	 [197]
00001831 	 00000013 	 00002D1E 	 call 	 gray
00001832 	 A0000003 	 000000C6 	  pop 	 [198]
00001833 	 A0000003 	 000000C7 	  pop 	 [199]
00001834 	 A0000003 	 000000C8 	  pop 	 [200]
00001835 	 00000013 	 00002D17 	 call 	 black
00001836 	 A0000003 	 000000C9 	  pop 	 [201]
00001837 	 A0000003 	 000000CA 	  pop 	 [202]
00001838 	 A0000003 	 000000CB 	  pop 	 [203]
00001839 	 00000013 	 00002D1E 	 call 	 gray
00001840 	 A0000003 	 000000CC 	  pop 	 [204]
00001841 	 A0000003 	 000000CD 	  pop 	 [205]
00001842 	 A0000003 	 000000CE 	  pop 	 [206]
00001843 	 00000013 	 00002D17 	 call 	 black
00001844 	 A0000003 	 000000CF 	  pop 	 [207]
00001845 	 A0000003 	 000000D0 	  pop 	 [208]
00001846 	 A0000003 	 000000D1 	  pop 	 [209]
00001847 	 00000013 	 00002D1E 	 call 	 gray
00001848 	 A0000003 	 000000D2 	  pop 	 [210]
00001849 	 A0000003 	 000000D3 	  pop 	 [211]
00001850 	 A0000003 	 000000D4 	  pop 	 [212]
00001851 	 00000013 	 00002D17 	 call 	 black
00001852 	 A0000003 	 000000D5 	  pop 	 [213]
00001853 	 A0000003 	 000000D6 	  pop 	 [214]
00001854 	 A0000003 	 000000D7 	  pop 	 [215]
00001855 	 00000013 	 00002CDF 	 call 	 rb3
00001856 	 A0000003 	 000000D8 	  pop 	 [216]
00001857 	 A0000003 	 000000D9 	  pop 	 [217]
00001858 	 A0000003 	 000000DA 	  pop 	 [218]
00001859 	 00000013 	 00002CDF 	 call 	 rb3
00001860 	 A0000003 	 000000DB 	  pop 	 [219]
00001861 	 A0000003 	 000000DC 	  pop 	 [220]
00001862 	 A0000003 	 000000DD 	  pop 	 [221]
00001863 	 00000013 	 00002CDF 	 call 	 rb3
00001864 	 A0000003 	 000000DE 	  pop 	 [222]
00001865 	 A0000003 	 000000DF 	  pop 	 [223]
00001866 	 A0000003 	 000000E0 	  pop 	 [224]
00001867 	 00000013 	 00002CDF 	 call 	 rb3
00001868 	 A0000003 	 000000E1 	  pop 	 [225]
00001869 	 A0000003 	 000000E2 	  pop 	 [226]
00001870 	 A0000003 	 000000E3 	  pop 	 [227]
00001871 	 00000013 	 00002CDF 	 call 	 rb3
00001872 	 A0000003 	 000000E4 	  pop 	 [228]
00001873 	 A0000003 	 000000E5 	  pop 	 [229]
00001874 	 A0000003 	 000000E6 	  pop 	 [230]
00001875 	 00000013 	 00002D17 	 call 	 black
00001876 	 A0000003 	 000000E7 	  pop 	 [231]
00001877 	 A0000003 	 000000E8 	  pop 	 [232]
00001878 	 A0000003 	 000000E9 	  pop 	 [233]
00001879 	 00000013 	 00002D1E 	 call 	 gray
00001880 	 A0000003 	 000000EA 	  pop 	 [234]
00001881 	 A0000003 	 000000EB 	  pop 	 [235]
00001882 	 A0000003 	 000000EC 	  pop 	 [236]
00001883 	 00000013 	 00002D17 	 call 	 black
00001884 	 A0000003 	 000000ED 	  pop 	 [237]
00001885 	 A0000003 	 000000EE 	  pop 	 [238]
00001886 	 A0000003 	 000000EF 	  pop 	 [239]
00001887 	 00000013 	 00002CDF 	 call 	 rb3
00001888 	 A0000003 	 000000F0 	  pop 	 [240]
00001889 	 A0000003 	 000000F1 	  pop 	 [241]
00001890 	 A0000003 	 000000F2 	  pop 	 [242]
00001891 	 00000013 	 00002CDF 	 call 	 rb3
00001892 	 A0000003 	 000000F3 	  pop 	 [243]
00001893 	 A0000003 	 000000F4 	  pop 	 [244]
00001894 	 A0000003 	 000000F5 	  pop 	 [245]
00001895 	 00000013 	 00002CDF 	 call 	 rb3
00001896 	 A0000003 	 000000F6 	  pop 	 [246]
00001897 	 A0000003 	 000000F7 	  pop 	 [247]
00001898 	 A0000003 	 000000F8 	  pop 	 [248]
00001899 	 00000013 	 00002CDF 	 call 	 rb3
00001900 	 A0000003 	 000000F9 	  pop 	 [249]
00001901 	 A0000003 	 000000FA 	  pop 	 [250]
00001902 	 A0000003 	 000000FB 	  pop 	 [251]
00001903 	 00000013 	 00002CDF 	 call 	 rb3
00001904 	 A0000003 	 000000FC 	  pop 	 [252]
00001905 	 A0000003 	 000000FD 	  pop 	 [253]
00001906 	 A0000003 	 000000FE 	  pop 	 [254]
00001907 	 00000013 	 00002CDF 	 call 	 rb3
00001908 	 A0000003 	 000000FF 	  pop 	 [255]
00001909 	 A0000003 	 00000100 	  pop 	 [256]
00001910 	 A0000003 	 00000101 	  pop 	 [257]
00001911 	 00000013 	 00002CDF 	 call 	 rb3
00001912 	 A0000003 	 00000102 	  pop 	 [258]
00001913 	 A0000003 	 00000103 	  pop 	 [259]
00001914 	 A0000003 	 00000104 	  pop 	 [260]
00001915 	 00000013 	 00002CDF 	 call 	 rb3
00001916 	 A0000003 	 00000105 	  pop 	 [261]
00001917 	 A0000003 	 00000106 	  pop 	 [262]
00001918 	 A0000003 	 00000107 	  pop 	 [263]
00001919 	 00000013 	 00002CDF 	 call 	 rb3
00001920 	 A0000003 	 00000108 	  pop 	 [264]
00001921 	 A0000003 	 00000109 	  pop 	 [265]
00001922 	 A0000003 	 0000010A 	  pop 	 [266]
00001923 	 00000013 	 00002D17 	 call 	 black
00001924 	 A0000003 	 0000010B 	  pop 	 [267]
00001925 	 A0000003 	 0000010C 	  pop 	 [268]
00001926 	 A0000003 	 0000010D 	  pop 	 [269]
00001927 	 00000013 	 00002D1E 	 call 	 gray
00001928 	 A0000003 	 0000010E 	  pop 	 [270]
00001929 	 A0000003 	 0000010F 	  pop 	 [271]
00001930 	 A0000003 	 00000110 	  pop 	 [272]
00001931 	 00000013 	 00002D17 	 call 	 black
00001932 	 A0000003 	 00000111 	  pop 	 [273]
00001933 	 A0000003 	 00000112 	  pop 	 [274]
00001934 	 A0000003 	 00000113 	  pop 	 [275]
00001935 	 00000013 	 00002D1E 	 call 	 gray
00001936 	 A0000003 	 00000114 	  pop 	 [276]
00001937 	 A0000003 	 00000115 	  pop 	 [277]
00001938 	 A0000003 	 00000116 	  pop 	 [278]
00001939 	 00000013 	 00002D17 	 call 	 black
00001940 	 A0000003 	 00000117 	  pop 	 [279]
00001941 	 A0000003 	 00000118 	  pop 	 [280]
00001942 	 A0000003 	 00000119 	  pop 	 [281]
00001943 	 00000013 	 00002D1E 	 call 	 gray
00001944 	 A0000003 	 0000011A 	  pop 	 [282]
00001945 	 A0000003 	 0000011B 	  pop 	 [283]
00001946 	 A0000003 	 0000011C 	  pop 	 [284]
00001947 	 00000013 	 00002D17 	 call 	 black
00001948 	 A0000003 	 0000011D 	  pop 	 [285]
00001949 	 A0000003 	 0000011E 	  pop 	 [286]
00001950 	 A0000003 	 0000011F 	  pop 	 [287]
00001951 	 00000013 	 00002CDF 	 call 	 rb3
00001952 	 A0000003 	 00000138 	  pop 	 [312]
00001953 	 A0000003 	 00000139 	  pop 	 [313]
00001954 	 A0000003 	 0000013A 	  pop 	 [314]
00001955 	 00000013 	 00002CDF 	 call 	 rb3
00001956 	 A0000003 	 00000147 	  pop 	 [327]
00001957 	 A0000003 	 00000148 	  pop 	 [328]
00001958 	 A0000003 	 00000149 	  pop 	 [329]
00001959 	 00000013 	 00002CDF 	 call 	 rb3
00001960 	 A0000003 	 0000015C 	  pop 	 [348]
00001961 	 A0000003 	 0000015D 	  pop 	 [349]
00001962 	 A0000003 	 0000015E 	  pop 	 [350]
00001963 	 00000013 	 00002CDF 	 call 	 rb3
00001964 	 A0000003 	 000001BC 	  pop 	 [444]
00001965 	 A0000003 	 000001BD 	  pop 	 [445]
00001966 	 A0000003 	 000001BE 	  pop 	 [446]
00001967 	 00000013 	 00002CDF 	 call 	 rb3
00001968 	 A0000003 	 0000021C 	  pop 	 [540]
00001969 	 A0000003 	 0000021D 	  pop 	 [541]
00001970 	 A0000003 	 0000021E 	  pop 	 [542]
00001971 	 00000013 	 00002CDF 	 call 	 rb3
00001972 	 A0000003 	 0000027C 	  pop 	 [636]
00001973 	 A0000003 	 0000027D 	  pop 	 [637]
00001974 	 A0000003 	 0000027E 	  pop 	 [638]
00001975 	 00000013 	 00002CDF 	 call 	 rb3
00001976 	 A0000003 	 000002DC 	  pop 	 [732]
00001977 	 A0000003 	 000002DD 	  pop 	 [733]
00001978 	 A0000003 	 000002DE 	  pop 	 [734]
00001979 	 00000013 	 00002CDF 	 call 	 rb3
00001980 	 A0000003 	 0000033C 	  pop 	 [828]
00001981 	 A0000003 	 0000033D 	  pop 	 [829]
00001982 	 A0000003 	 0000033E 	  pop 	 [830]
00001983 	 00000013 	 00002CDF 	 call 	 rb3
00001984 	 A0000003 	 0000039C 	  pop 	 [924]
00001985 	 A0000003 	 0000039D 	  pop 	 [925]
00001986 	 A0000003 	 0000039E 	  pop 	 [926]
00001987 	 00000013 	 00002CDF 	 call 	 rb3
00001988 	 A0000003 	 000003FC 	  pop 	 [1020]
00001989 	 A0000003 	 000003FD 	  pop 	 [1021]
00001990 	 A0000003 	 000003FE 	  pop 	 [1022]
00001991 	 00000013 	 00002CDF 	 call 	 rb3
00001992 	 A0000003 	 0000045C 	  pop 	 [1116]
00001993 	 A0000003 	 0000045D 	  pop 	 [1117]
00001994 	 A0000003 	 0000045E 	  pop 	 [1118]
00001995 	 00000013 	 00002CDF 	 call 	 rb3
00001996 	 A0000003 	 000004BC 	  pop 	 [1212]
00001997 	 A0000003 	 000004BD 	  pop 	 [1213]
00001998 	 A0000003 	 000004BE 	  pop 	 [1214]
00001999 	 00000013 	 00002CDF 	 call 	 rb3
00002000 	 A0000003 	 0000051C 	  pop 	 [1308]
00002001 	 A0000003 	 0000051D 	  pop 	 [1309]
00002002 	 A0000003 	 0000051E 	  pop 	 [1310]
00002003 	 00000013 	 00002CDF 	 call 	 rb3
00002004 	 A0000003 	 0000057C 	  pop 	 [1404]
00002005 	 A0000003 	 0000057D 	  pop 	 [1405]
00002006 	 A0000003 	 0000057E 	  pop 	 [1406]
00002007 	 00000013 	 00002CDF 	 call 	 rb3
00002008 	 A0000003 	 000005DC 	  pop 	 [1500]
00002009 	 A0000003 	 000005DD 	  pop 	 [1501]
00002010 	 A0000003 	 000005DE 	  pop 	 [1502]
00002011 	 00000013 	 00002CDF 	 call 	 rb3
00002012 	 A0000003 	 00000198 	  pop 	 [408]
00002013 	 A0000003 	 00000199 	  pop 	 [409]
00002014 	 A0000003 	 0000019A 	  pop 	 [410]
00002015 	 00000013 	 00002CDF 	 call 	 rb3
00002016 	 A0000003 	 000001A7 	  pop 	 [423]
00002017 	 A0000003 	 000001A8 	  pop 	 [424]
00002018 	 A0000003 	 000001A9 	  pop 	 [425]
00002019 	 00000013 	 00002CDF 	 call 	 rb3
00002020 	 A0000003 	 000001F8 	  pop 	 [504]
00002021 	 A0000003 	 000001F9 	  pop 	 [505]
00002022 	 A0000003 	 000001FA 	  pop 	 [506]
00002023 	 00000013 	 00002CDF 	 call 	 rb3
00002024 	 A0000003 	 00000207 	  pop 	 [519]
00002025 	 A0000003 	 00000208 	  pop 	 [520]
00002026 	 A0000003 	 00000209 	  pop 	 [521]
00002027 	 00000013 	 00002CDF 	 call 	 rb3
00002028 	 A0000003 	 00000258 	  pop 	 [600]
00002029 	 A0000003 	 00000259 	  pop 	 [601]
00002030 	 A0000003 	 0000025A 	  pop 	 [602]
00002031 	 00000013 	 00002CDF 	 call 	 rb3
00002032 	 A0000003 	 00000267 	  pop 	 [615]
00002033 	 A0000003 	 00000268 	  pop 	 [616]
00002034 	 A0000003 	 00000269 	  pop 	 [617]
00002035 	 00000013 	 00002CDF 	 call 	 rb3
00002036 	 A0000003 	 000002B8 	  pop 	 [696]
00002037 	 A0000003 	 000002B9 	  pop 	 [697]
00002038 	 A0000003 	 000002BA 	  pop 	 [698]
00002039 	 00000013 	 00002CDF 	 call 	 rb3
00002040 	 A0000003 	 000002BB 	  pop 	 [699]
00002041 	 A0000003 	 000002BC 	  pop 	 [700]
00002042 	 A0000003 	 000002BD 	  pop 	 [701]
00002043 	 00000013 	 00002CDF 	 call 	 rb3
00002044 	 A0000003 	 000002BE 	  pop 	 [702]
00002045 	 A0000003 	 000002BF 	  pop 	 [703]
00002046 	 A0000003 	 000002C0 	  pop 	 [704]
00002047 	 00000013 	 00002CDF 	 call 	 rb3
00002048 	 A0000003 	 000002C1 	  pop 	 [705]
00002049 	 A0000003 	 000002C2 	  pop 	 [706]
00002050 	 A0000003 	 000002C3 	  pop 	 [707]
00002051 	 00000013 	 00002CDF 	 call 	 rb3
00002052 	 A0000003 	 000002C4 	  pop 	 [708]
00002053 	 A0000003 	 000002C5 	  pop 	 [709]
00002054 	 A0000003 	 000002C6 	  pop 	 [710]
00002055 	 00000013 	 00002CDF 	 call 	 rb3
00002056 	 A0000003 	 00000318 	  pop 	 [792]
00002057 	 A0000003 	 00000319 	  pop 	 [793]
00002058 	 A0000003 	 0000031A 	  pop 	 [794]
00002059 	 00000013 	 00002CDF 	 call 	 rb3
00002060 	 A0000003 	 00000378 	  pop 	 [888]
00002061 	 A0000003 	 00000379 	  pop 	 [889]
00002062 	 A0000003 	 0000037A 	  pop 	 [890]
00002063 	 00000013 	 00002CDF 	 call 	 rb3
00002064 	 A0000003 	 000003D8 	  pop 	 [984]
00002065 	 A0000003 	 000003D9 	  pop 	 [985]
00002066 	 A0000003 	 000003DA 	  pop 	 [986]
00002067 	 00000013 	 00002CDF 	 call 	 rb3
00002068 	 A0000003 	 00000438 	  pop 	 [1080]
00002069 	 A0000003 	 00000439 	  pop 	 [1081]
00002070 	 A0000003 	 0000043A 	  pop 	 [1082]
00002071 	 00000013 	 00002CDF 	 call 	 rb3
00002072 	 A0000003 	 00000498 	  pop 	 [1176]
00002073 	 A0000003 	 00000499 	  pop 	 [1177]
00002074 	 A0000003 	 0000049A 	  pop 	 [1178]
00002075 	 00000013 	 00002CDF 	 call 	 rb3
00002076 	 A0000003 	 000004F8 	  pop 	 [1272]
00002077 	 A0000003 	 000004F9 	  pop 	 [1273]
00002078 	 A0000003 	 000004FA 	  pop 	 [1274]
00002079 	 00000013 	 00002CDF 	 call 	 rb3
00002080 	 A0000003 	 00000558 	  pop 	 [1368]
00002081 	 A0000003 	 00000559 	  pop 	 [1369]
00002082 	 A0000003 	 0000055A 	  pop 	 [1370]
00002083 	 00000013 	 00002CDF 	 call 	 rb3
00002084 	 A0000003 	 000005B8 	  pop 	 [1464]
00002085 	 A0000003 	 000005B9 	  pop 	 [1465]
00002086 	 A0000003 	 000005BA 	  pop 	 [1466]
00002087 	 00000016 	          	 scan
00002088 	 00000017 	          	 draw
00002089 	 00000013 	 00002D1E 	 call 	 gray
00002090 	 A0000003 	 00000000 	  pop 	 [0]
00002091 	 A0000003 	 00000001 	  pop 	 [1]
00002092 	 A0000003 	 00000002 	  pop 	 [2]
00002093 	 00000013 	 00002D17 	 call 	 black
00002094 	 A0000003 	 00000003 	  pop 	 [3]
00002095 	 A0000003 	 00000004 	  pop 	 [4]
00002096 	 A0000003 	 00000005 	  pop 	 [5]
00002097 	 00000013 	 00002D1E 	 call 	 gray
00002098 	 A0000003 	 00000006 	  pop 	 [6]
00002099 	 A0000003 	 00000007 	  pop 	 [7]
00002100 	 A0000003 	 00000008 	  pop 	 [8]
00002101 	 00000013 	 00002D17 	 call 	 black
00002102 	 A0000003 	 00000009 	  pop 	 [9]
00002103 	 A0000003 	 0000000A 	  pop 	 [10]
00002104 	 A0000003 	 0000000B 	  pop 	 [11]
00002105 	 00000013 	 00002D1E 	 call 	 gray
00002106 	 A0000003 	 0000000C 	  pop 	 [12]
00002107 	 A0000003 	 0000000D 	  pop 	 [13]
00002108 	 A0000003 	 0000000E 	  pop 	 [14]
00002109 	 00000013 	 00002D17 	 call 	 black
00002110 	 A0000003 	 0000000F 	  pop 	 [15]
00002111 	 A0000003 	 00000010 	  pop 	 [16]
00002112 	 A0000003 	 00000011 	  pop 	 [17]
00002113 	 00000013 	 00002D1E 	 call 	 gray
00002114 	 A0000003 	 00000012 	  pop 	 [18]
00002115 	 A0000003 	 00000013 	  pop 	 [19]
00002116 	 A0000003 	 00000014 	  pop 	 [20]
00002117 	 00000013 	 00002D17 	 call 	 black
00002118 	 A0000003 	 00000015 	  pop 	 [21]
00002119 	 A0000003 	 00000016 	  pop 	 [22]
00002120 	 A0000003 	 00000017 	  pop 	 [23]
00002121 	 00000013 	 00002D1E 	 call 	 gray
00002122 	 A0000003 	 00000018 	  pop 	 [24]
00002123 	 A0000003 	 00000019 	  pop 	 [25]
00002124 	 A0000003 	 0000001A 	  pop 	 [26]
00002125 	 00000013 	 00002D17 	 call 	 black
00002126 	 A0000003 	 0000001B 	  pop 	 [27]
00002127 	 A0000003 	 0000001C 	  pop 	 [28]
00002128 	 A0000003 	 0000001D 	  pop 	 [29]
00002129 	 00000013 	 00002D1E 	 call 	 gray
00002130 	 A0000003 	 0000001E 	  pop 	 [30]
00002131 	 A0000003 	 0000001F 	  pop 	 [31]
00002132 	 A0000003 	 00000020 	  pop 	 [32]
00002133 	 00000013 	 00002D17 	 call 	 black
00002134 	 A0000003 	 00000021 	  pop 	 [33]
00002135 	 A0000003 	 00000022 	  pop 	 [34]
00002136 	 A0000003 	 00000023 	  pop 	 [35]
00002137 	 00000013 	 00002D1E 	 call 	 gray
00002138 	 A0000003 	 00000024 	  pop 	 [36]
00002139 	 A0000003 	 00000025 	  pop 	 [37]
00002140 	 A0000003 	 00000026 	  pop 	 [38]
00002141 	 00000013 	 00002D17 	 call 	 black
00002142 	 A0000003 	 00000027 	  pop 	 [39]
00002143 	 A0000003 	 00000028 	  pop 	 [40]
00002144 	 A0000003 	 00000029 	  pop 	 [41]
00002145 	 00000013 	 00002D1E 	 call 	 gray
00002146 	 A0000003 	 0000002A 	  pop 	 [42]
00002147 	 A0000003 	 0000002B 	  pop 	 [43]
00002148 	 A0000003 	 0000002C 	  pop 	 [44]
00002149 	 00000013 	 00002D17 	 call 	 black
00002150 	 A0000003 	 0000002D 	  pop 	 [45]
00002151 	 A0000003 	 0000002E 	  pop 	 [46]
00002152 	 A0000003 	 0000002F 	  pop 	 [47]
00002153 	 00000013 	 00002D1E 	 call 	 gray
00002154 	 A0000003 	 00000030 	  pop 	 [48]
00002155 	 A0000003 	 00000031 	  pop 	 [49]
00002156 	 A0000003 	 00000032 	  pop 	 [50]
00002157 	 00000013 	 00002D17 	 call 	 black
00002158 	 A0000003 	 00000033 	  pop 	 [51]
00002159 	 A0000003 	 00000034 	  pop 	 [52]
00002160 	 A0000003 	 00000035 	  pop 	 [53]
00002161 	 00000013 	 00002D1E 	 call 	 gray
00002162 	 A0000003 	 00000036 	  pop 	 [54]
00002163 	 A0000003 	 00000037 	  pop 	 [55]
00002164 	 A0000003 	 00000038 	  pop 	 [56]
00002165 	 00000013 	 00002D17 	 call 	 black
00002166 	 A0000003 	 00000039 	  pop 	 [57]
00002167 	 A0000003 	 0000003A 	  pop 	 [58]
00002168 	 A0000003 	 0000003B 	  pop 	 [59]
00002169 	 00000013 	 00002D1E 	 call 	 gray
00002170 	 A0000003 	 0000003C 	  pop 	 [60]
00002171 	 A0000003 	 0000003D 	  pop 	 [61]
00002172 	 A0000003 	 0000003E 	  pop 	 [62]
00002173 	 00000013 	 00002D17 	 call 	 black
00002174 	 A0000003 	 0000003F 	  pop 	 [63]
00002175 	 A0000003 	 00000040 	  pop 	 [64]
00002176 	 A0000003 	 00000041 	  pop 	 [65]
00002177 	 00000013 	 00002D1E 	 call 	 gray
00002178 	 A0000003 	 00000042 	  pop 	 [66]
00002179 	 A0000003 	 00000043 	  pop 	 [67]
00002180 	 A0000003 	 00000044 	  pop 	 [68]
00002181 	 00000013 	 00002D17 	 call 	 black
00002182 	 A0000003 	 00000045 	  pop 	 [69]
00002183 	 A0000003 	 00000046 	  pop 	 [70]
00002184 	 A0000003 	 00000047 	  pop 	 [71]
00002185 	 00000013 	 00002D1E 	 call 	 gray
00002186 	 A0000003 	 00000048 	  pop 	 [72]
00002187 	 A0000003 	 00000049 	  pop 	 [73]
00002188 	 A0000003 	 0000004A 	  pop 	 [74]
00002189 	 00000013 	 00002D17 	 call 	 black
00002190 	 A0000003 	 0000004B 	  pop 	 [75]
00002191 	 A0000003 	 0000004C 	  pop 	 [76]
00002192 	 A0000003 	 0000004D 	  pop 	 [77]
00002193 	 00000013 	 00002D1E 	 call 	 gray
00002194 	 A0000003 	 0000004E 	  pop 	 [78]
00002195 	 A0000003 	 0000004F 	  pop 	 [79]
00002196 	 A0000003 	 00000050 	  pop 	 [80]
00002197 	 00000013 	 00002D17 	 call 	 black
00002198 	 A0000003 	 00000051 	  pop 	 [81]
00002199 	 A0000003 	 00000052 	  pop 	 [82]
00002200 	 A0000003 	 00000053 	  pop 	 [83]
00002201 	 00000013 	 00002D1E 	 call 	 gray
00002202 	 A0000003 	 00000054 	  pop 	 [84]
00002203 	 A0000003 	 00000055 	  pop 	 [85]
00002204 	 A0000003 	 00000056 	  pop 	 [86]
00002205 	 00000013 	 00002D17 	 call 	 black
00002206 	 A0000003 	 00000057 	  pop 	 [87]
00002207 	 A0000003 	 00000058 	  pop 	 [88]
00002208 	 A0000003 	 00000059 	  pop 	 [89]
00002209 	 00000013 	 00002D1E 	 call 	 gray
00002210 	 A0000003 	 0000005A 	  pop 	 [90]
00002211 	 A0000003 	 0000005B 	  pop 	 [91]
00002212 	 A0000003 	 0000005C 	  pop 	 [92]
00002213 	 00000013 	 00002D17 	 call 	 black
00002214 	 A0000003 	 0000005D 	  pop 	 [93]
00002215 	 A0000003 	 0000005E 	  pop 	 [94]
00002216 	 A0000003 	 0000005F 	  pop 	 [95]
00002217 	 00000013 	 00002D1E 	 call 	 gray
00002218 	 A0000003 	 00000060 	  pop 	 [96]
00002219 	 A0000003 	 00000061 	  pop 	 [97]
00002220 	 A0000003 	 00000062 	  pop 	 [98]
00002221 	 00000013 	 00002D17 	 call 	 black
00002222 	 A0000003 	 00000063 	  pop 	 [99]
00002223 	 A0000003 	 00000064 	  pop 	 [100]
00002224 	 A0000003 	 00000065 	  pop 	 [101]
00002225 	 00000013 	 00002D1E 	 call 	 gray
00002226 	 A0000003 	 00000066 	  pop 	 [102]
00002227 	 A0000003 	 00000067 	  pop 	 [103]
00002228 	 A0000003 	 00000068 	  pop 	 [104]
00002229 	 00000013 	 00002D17 	 call 	 black
00002230 	 A0000003 	 00000069 	  pop 	 [105]
00002231 	 A0000003 	 0000006A 	  pop 	 [106]
00002232 	 A0000003 	 0000006B 	  pop 	 [107]
00002233 	 00000013 	 00002D1E 	 call 	 gray
00002234 	 A0000003 	 0000006C 	  pop 	 [108]
00002235 	 A0000003 	 0000006D 	  pop 	 [109]
00002236 	 A0000003 	 0000006E 	  pop 	 [110]
00002237 	 00000013 	 00002D17 	 call 	 black
00002238 	 A0000003 	 0000006F 	  pop 	 [111]
00002239 	 A0000003 	 00000070 	  pop 	 [112]
00002240 	 A0000003 	 00000071 	  pop 	 [113]
00002241 	 00000013 	 00002D1E 	 call 	 gray
00002242 	 A0000003 	 00000072 	  pop 	 [114]
00002243 	 A0000003 	 00000073 	  pop 	 [115]
00002244 	 A0000003 	 00000074 	  pop 	 [116]
00002245 	 00000013 	 00002D17 	 call 	 black
00002246 	 A0000003 	 00000075 	  pop 	 [117]
00002247 	 A0000003 	 00000076 	  pop 	 [118]
00002248 	 A0000003 	 00000077 	  pop 	 [119]
00002249 	 00000013 	 00002D1E 	 call 	 gray
00002250 	 A0000003 	 00000078 	  pop 	 [120]
00002251 	 A0000003 	 00000079 	  pop 	 [121]
00002252 	 A0000003 	 0000007A 	  pop 	 [122]
00002253 	 00000013 	 00002D17 	 call 	 black
00002254 	 A0000003 	 0000007B 	  pop 	 [123]
00002255 	 A0000003 	 0000007C 	  pop 	 [124]
00002256 	 A0000003 	 0000007D 	  pop 	 [125]
00002257 	 00000013 	 00002D1E 	 call 	 gray
00002258 	 A0000003 	 0000007E 	  pop 	 [126]
00002259 	 A0000003 	 0000007F 	  pop 	 [127]
00002260 	 A0000003 	 00000080 	  pop 	 [128]
00002261 	 00000013 	 00002D17 	 call 	 black
00002262 	 A0000003 	 00000081 	  pop 	 [129]
00002263 	 A0000003 	 00000082 	  pop 	 [130]
00002264 	 A0000003 	 00000083 	  pop 	 [131]
00002265 	 00000013 	 00002D1E 	 call 	 gray
00002266 	 A0000003 	 00000084 	  pop 	 [132]
00002267 	 A0000003 	 00000085 	  pop 	 [133]
00002268 	 A0000003 	 00000086 	  pop 	 [134]
00002269 	 00000013 	 00002D17 	 call 	 black
00002270 	 A0000003 	 00000087 	  pop 	 [135]
00002271 	 A0000003 	 00000088 	  pop 	 [136]
00002272 	 A0000003 	 00000089 	  pop 	 [137]
00002273 	 00000013 	 00002D1E 	 call 	 gray
00002274 	 A0000003 	 0000008A 	  pop 	 [138]
00002275 	 A0000003 	 0000008B 	  pop 	 [139]
00002276 	 A0000003 	 0000008C 	  pop 	 [140]
00002277 	 00000013 	 00002D17 	 call 	 black
00002278 	 A0000003 	 0000008D 	  pop 	 [141]
00002279 	 A0000003 	 0000008E 	  pop 	 [142]
00002280 	 A0000003 	 0000008F 	  pop 	 [143]
00002281 	 00000013 	 00002D1E 	 call 	 gray
00002282 	 A0000003 	 00000090 	  pop 	 [144]
00002283 	 A0000003 	 00000091 	  pop 	 [145]
00002284 	 A0000003 	 00000092 	  pop 	 [146]
00002285 	 00000013 	 00002D17 	 call 	 black
00002286 	 A0000003 	 00000093 	  pop 	 [147]
00002287 	 A0000003 	 00000094 	  pop 	 [148]
00002288 	 A0000003 	 00000095 	  pop 	 [149]
00002289 	 00000013 	 00002D1E 	 call 	 gray
00002290 	 A0000003 	 00000096 	  pop 	 [150]
00002291 	 A0000003 	 00000097 	  pop 	 [151]
00002292 	 A0000003 	 00000098 	  pop 	 [152]
00002293 	 00000013 	 00002D17 	 call 	 black
00002294 	 A0000003 	 00000099 	  pop 	 [153]
00002295 	 A0000003 	 0000009A 	  pop 	 [154]
00002296 	 A0000003 	 0000009B 	  pop 	 [155]
00002297 	 00000013 	 00002D1E 	 call 	 gray
00002298 	 A0000003 	 0000009C 	  pop 	 [156]
00002299 	 A0000003 	 0000009D 	  pop 	 [157]
00002300 	 A0000003 	 0000009E 	  pop 	 [158]
00002301 	 00000013 	 00002D17 	 call 	 black
00002302 	 A0000003 	 0000009F 	  pop 	 [159]
00002303 	 A0000003 	 000000A0 	  pop 	 [160]
00002304 	 A0000003 	 000000A1 	  pop 	 [161]
00002305 	 00000013 	 00002D1E 	 call 	 gray
00002306 	 A0000003 	 000000A2 	  pop 	 [162]
00002307 	 A0000003 	 000000A3 	  pop 	 [163]
00002308 	 A0000003 	 000000A4 	  pop 	 [164]
00002309 	 00000013 	 00002D17 	 call 	 black
00002310 	 A0000003 	 000000A5 	  pop 	 [165]
00002311 	 A0000003 	 000000A6 	  pop 	 [166]
00002312 	 A0000003 	 000000A7 	  pop 	 [167]
00002313 	 00000013 	 00002D1E 	 call 	 gray
00002314 	 A0000003 	 000000A8 	  pop 	 [168]
00002315 	 A0000003 	 000000A9 	  pop 	 [169]
00002316 	 A0000003 	 000000AA 	  pop 	 [170]
00002317 	 00000013 	 00002D17 	 call 	 black
00002318 	 A0000003 	 000000AB 	  pop 	 [171]
00002319 	 A0000003 	 000000AC 	  pop 	 [172]
00002320 	 A0000003 	 000000AD 	  pop 	 [173]
00002321 	 00000013 	 00002D1E 	 call 	 gray
00002322 	 A0000003 	 000000AE 	  pop 	 [174]
00002323 	 A0000003 	 000000AF 	  pop 	 [175]
00002324 	 A0000003 	 000000B0 	  pop 	 [176]
00002325 	 00000013 	 00002D17 	 call 	 black
00002326 	 A0000003 	 000000B1 	  pop 	 [177]
00002327 	 A0000003 	 000000B2 	  pop 	 [178]
00002328 	 A0000003 	 000000B3 	  pop 	 [179]
00002329 	 00000013 	 00002D1E 	 call 	 gray
00002330 	 A0000003 	 000000B4 	  pop 	 [180]
00002331 	 A0000003 	 000000B5 	  pop 	 [181]
00002332 	 A0000003 	 000000B6 	  pop 	 [182]
00002333 	 00000013 	 00002D17 	 call 	 black
00002334 	 A0000003 	 000000B7 	  pop 	 [183]
00002335 	 A0000003 	 000000B8 	  pop 	 [184]
00002336 	 A0000003 	 000000B9 	  pop 	 [185]
00002337 	 00000013 	 00002D1E 	 call 	 gray
00002338 	 A0000003 	 000000BA 	  pop 	 [186]
00002339 	 A0000003 	 000000BB 	  pop 	 [187]
00002340 	 A0000003 	 000000BC 	  pop 	 [188]
00002341 	 00000013 	 00002D17 	 call 	 black
00002342 	 A0000003 	 000000BD 	  pop 	 [189]
00002343 	 A0000003 	 000000BE 	  pop 	 [190]
00002344 	 A0000003 	 000000BF 	  pop 	 [191]
00002345 	 00000013 	 00002D1E 	 call 	 gray
00002346 	 A0000003 	 000000C0 	  pop 	 [192]
00002347 	 A0000003 	 000000C1 	  pop 	 [193]
00002348 	 A0000003 	 000000C2 	  pop 	 [194]
00002349 	 00000013 	 00002D17 	 call 	 black
00002350 	 A0000003 	 000000C3 	  pop 	 [195]
00002351 	 A0000003 	 000000C4 	  pop 	 [196]
00002352 	 A0000003 	 000000C5 	  pop 	 [197]
00002353 	 00000013 	 00002D1E 	 call 	 gray
00002354 	 A0000003 	 000000C6 	  pop 	 [198]
00002355 	 A0000003 	 000000C7 	  pop 	 [199]
00002356 	 A0000003 	 000000C8 	  pop 	 [200]
00002357 	 00000013 	 00002D17 	 call 	 black
00002358 	 A0000003 	 000000C9 	  pop 	 [201]
00002359 	 A0000003 	 000000CA 	  pop 	 [202]
00002360 	 A0000003 	 000000CB 	  pop 	 [203]
00002361 	 00000013 	 00002D1E 	 call 	 gray
00002362 	 A0000003 	 000000CC 	  pop 	 [204]
00002363 	 A0000003 	 000000CD 	  pop 	 [205]
00002364 	 A0000003 	 000000CE 	  pop 	 [206]
00002365 	 00000013 	 00002D17 	 call 	 black
00002366 	 A0000003 	 000000CF 	  pop 	 [207]
00002367 	 A0000003 	 000000D0 	  pop 	 [208]
00002368 	 A0000003 	 000000D1 	  pop 	 [209]
00002369 	 00000013 	 00002D1E 	 call 	 gray
00002370 	 A0000003 	 000000D2 	  pop 	 [210]
00002371 	 A0000003 	 000000D3 	  pop 	 [211]
00002372 	 A0000003 	 000000D4 	  pop 	 [212]
00002373 	 00000013 	 00002D17 	 call 	 black
00002374 	 A0000003 	 000000D5 	  pop 	 [213]
00002375 	 A0000003 	 000000D6 	  pop 	 [214]
00002376 	 A0000003 	 000000D7 	  pop 	 [215]
00002377 	 00000013 	 00002CE6 	 call 	 rb4
00002378 	 A0000003 	 000000D8 	  pop 	 [216]
00002379 	 A0000003 	 000000D9 	  pop 	 [217]
00002380 	 A0000003 	 000000DA 	  pop 	 [218]
00002381 	 00000013 	 00002CE6 	 call 	 rb4
00002382 	 A0000003 	 000000DB 	  pop 	 [219]
00002383 	 A0000003 	 000000DC 	  pop 	 [220]
00002384 	 A0000003 	 000000DD 	  pop 	 [221]
00002385 	 00000013 	 00002CE6 	 call 	 rb4
00002386 	 A0000003 	 000000DE 	  pop 	 [222]
00002387 	 A0000003 	 000000DF 	  pop 	 [223]
00002388 	 A0000003 	 000000E0 	  pop 	 [224]
00002389 	 00000013 	 00002CE6 	 call 	 rb4
00002390 	 A0000003 	 000000E1 	  pop 	 [225]
00002391 	 A0000003 	 000000E2 	  pop 	 [226]
00002392 	 A0000003 	 000000E3 	  pop 	 [227]
00002393 	 00000013 	 00002CE6 	 call 	 rb4
00002394 	 A0000003 	 000000E4 	  pop 	 [228]
00002395 	 A0000003 	 000000E5 	  pop 	 [229]
00002396 	 A0000003 	 000000E6 	  pop 	 [230]
00002397 	 00000013 	 00002D17 	 call 	 black
00002398 	 A0000003 	 000000E7 	  pop 	 [231]
00002399 	 A0000003 	 000000E8 	  pop 	 [232]
00002400 	 A0000003 	 000000E9 	  pop 	 [233]
00002401 	 00000013 	 00002D1E 	 call 	 gray
00002402 	 A0000003 	 000000EA 	  pop 	 [234]
00002403 	 A0000003 	 000000EB 	  pop 	 [235]
00002404 	 A0000003 	 000000EC 	  pop 	 [236]
00002405 	 00000013 	 00002D17 	 call 	 black
00002406 	 A0000003 	 000000ED 	  pop 	 [237]
00002407 	 A0000003 	 000000EE 	  pop 	 [238]
00002408 	 A0000003 	 000000EF 	  pop 	 [239]
00002409 	 00000013 	 00002CE6 	 call 	 rb4
00002410 	 A0000003 	 000000F0 	  pop 	 [240]
00002411 	 A0000003 	 000000F1 	  pop 	 [241]
00002412 	 A0000003 	 000000F2 	  pop 	 [242]
00002413 	 00000013 	 00002CE6 	 call 	 rb4
00002414 	 A0000003 	 000000F3 	  pop 	 [243]
00002415 	 A0000003 	 000000F4 	  pop 	 [244]
00002416 	 A0000003 	 000000F5 	  pop 	 [245]
00002417 	 00000013 	 00002CE6 	 call 	 rb4
00002418 	 A0000003 	 000000F6 	  pop 	 [246]
00002419 	 A0000003 	 000000F7 	  pop 	 [247]
00002420 	 A0000003 	 000000F8 	  pop 	 [248]
00002421 	 00000013 	 00002CE6 	 call 	 rb4
00002422 	 A0000003 	 000000F9 	  pop 	 [249]
00002423 	 A0000003 	 000000FA 	  pop 	 [250]
00002424 	 A0000003 	 000000FB 	  pop 	 [251]
00002425 	 00000013 	 00002CE6 	 call 	 rb4
00002426 	 A0000003 	 000000FC 	  pop 	 [252]
00002427 	 A0000003 	 000000FD 	  pop 	 [253]
00002428 	 A0000003 	 000000FE 	  pop 	 [254]
00002429 	 00000013 	 00002CE6 	 call 	 rb4
00002430 	 A0000003 	 000000FF 	  pop 	 [255]
00002431 	 A0000003 	 00000100 	  pop 	 [256]
00002432 	 A0000003 	 00000101 	  pop 	 [257]
00002433 	 00000013 	 00002CE6 	 call 	 rb4
00002434 	 A0000003 	 00000102 	  pop 	 [258]
00002435 	 A0000003 	 00000103 	  pop 	 [259]
00002436 	 A0000003 	 00000104 	  pop 	 [260]
00002437 	 00000013 	 00002CE6 	 call 	 rb4
00002438 	 A0000003 	 00000105 	  pop 	 [261]
00002439 	 A0000003 	 00000106 	  pop 	 [262]
00002440 	 A0000003 	 00000107 	  pop 	 [263]
00002441 	 00000013 	 00002CE6 	 call 	 rb4
00002442 	 A0000003 	 00000108 	  pop 	 [264]
00002443 	 A0000003 	 00000109 	  pop 	 [265]
00002444 	 A0000003 	 0000010A 	  pop 	 [266]
00002445 	 00000013 	 00002D17 	 call 	 black
00002446 	 A0000003 	 0000010B 	  pop 	 [267]
00002447 	 A0000003 	 0000010C 	  pop 	 [268]
00002448 	 A0000003 	 0000010D 	  pop 	 [269]
00002449 	 00000013 	 00002D1E 	 call 	 gray
00002450 	 A0000003 	 0000010E 	  pop 	 [270]
00002451 	 A0000003 	 0000010F 	  pop 	 [271]
00002452 	 A0000003 	 00000110 	  pop 	 [272]
00002453 	 00000013 	 00002D17 	 call 	 black
00002454 	 A0000003 	 00000111 	  pop 	 [273]
00002455 	 A0000003 	 00000112 	  pop 	 [274]
00002456 	 A0000003 	 00000113 	  pop 	 [275]
00002457 	 00000013 	 00002D1E 	 call 	 gray
00002458 	 A0000003 	 00000114 	  pop 	 [276]
00002459 	 A0000003 	 00000115 	  pop 	 [277]
00002460 	 A0000003 	 00000116 	  pop 	 [278]
00002461 	 00000013 	 00002D17 	 call 	 black
00002462 	 A0000003 	 00000117 	  pop 	 [279]
00002463 	 A0000003 	 00000118 	  pop 	 [280]
00002464 	 A0000003 	 00000119 	  pop 	 [281]
00002465 	 00000013 	 00002D1E 	 call 	 gray
00002466 	 A0000003 	 0000011A 	  pop 	 [282]
00002467 	 A0000003 	 0000011B 	  pop 	 [283]
00002468 	 A0000003 	 0000011C 	  pop 	 [284]
00002469 	 00000013 	 00002D17 	 call 	 black
00002470 	 A0000003 	 0000011D 	  pop 	 [285]
00002471 	 A0000003 	 0000011E 	  pop 	 [286]
00002472 	 A0000003 	 0000011F 	  pop 	 [287]
00002473 	 00000013 	 00002CE6 	 call 	 rb4
00002474 	 A0000003 	 00000138 	  pop 	 [312]
00002475 	 A0000003 	 00000139 	  pop 	 [313]
00002476 	 A0000003 	 0000013A 	  pop 	 [314]
00002477 	 00000013 	 00002CE6 	 call 	 rb4
00002478 	 A0000003 	 00000147 	  pop 	 [327]
00002479 	 A0000003 	 00000148 	  pop 	 [328]
00002480 	 A0000003 	 00000149 	  pop 	 [329]
00002481 	 00000013 	 00002CE6 	 call 	 rb4
00002482 	 A0000003 	 0000015C 	  pop 	 [348]
00002483 	 A0000003 	 0000015D 	  pop 	 [349]
00002484 	 A0000003 	 0000015E 	  pop 	 [350]
00002485 	 00000013 	 00002CE6 	 call 	 rb4
00002486 	 A0000003 	 000001BC 	  pop 	 [444]
00002487 	 A0000003 	 000001BD 	  pop 	 [445]
00002488 	 A0000003 	 000001BE 	  pop 	 [446]
00002489 	 00000013 	 00002CE6 	 call 	 rb4
00002490 	 A0000003 	 0000021C 	  pop 	 [540]
00002491 	 A0000003 	 0000021D 	  pop 	 [541]
00002492 	 A0000003 	 0000021E 	  pop 	 [542]
00002493 	 00000013 	 00002CE6 	 call 	 rb4
00002494 	 A0000003 	 0000027C 	  pop 	 [636]
00002495 	 A0000003 	 0000027D 	  pop 	 [637]
00002496 	 A0000003 	 0000027E 	  pop 	 [638]
00002497 	 00000013 	 00002CE6 	 call 	 rb4
00002498 	 A0000003 	 000002DC 	  pop 	 [732]
00002499 	 A0000003 	 000002DD 	  pop 	 [733]
00002500 	 A0000003 	 000002DE 	  pop 	 [734]
00002501 	 00000013 	 00002CE6 	 call 	 rb4
00002502 	 A0000003 	 0000033C 	  pop 	 [828]
00002503 	 A0000003 	 0000033D 	  pop 	 [829]
00002504 	 A0000003 	 0000033E 	  pop 	 [830]
00002505 	 00000013 	 00002CE6 	 call 	 rb4
00002506 	 A0000003 	 0000039C 	  pop 	 [924]
00002507 	 A0000003 	 0000039D 	  pop 	 [925]
00002508 	 A0000003 	 0000039E 	  pop 	 [926]
00002509 	 00000013 	 00002CE6 	 call 	 rb4
00002510 	 A0000003 	 000003FC 	  pop 	 [1020]
00002511 	 A0000003 	 000003FD 	  pop 	 [1021]
00002512 	 A0000003 	 000003FE 	  pop 	 [1022]
00002513 	 00000013 	 00002CE6 	 call 	 rb4
00002514 	 A0000003 	 0000045C 	  pop 	 [1116]
00002515 	 A0000003 	 0000045D 	  pop 	 [1117]
00002516 	 A0000003 	 0000045E 	  pop 	 [1118]
00002517 	 00000013 	 00002CE6 	 call 	 rb4
00002518 	 A0000003 	 000004BC 	  pop 	 [1212]
00002519 	 A0000003 	 000004BD 	  pop 	 [1213]
00002520 	 A0000003 	 000004BE 	  pop 	 [1214]
00002521 	 00000013 	 00002CE6 	 call 	 rb4
00002522 	 A0000003 	 0000051C 	  pop 	 [1308]
00002523 	 A0000003 	 0000051D 	  pop 	 [1309]
00002524 	 A0000003 	 0000051E 	  pop 	 [1310]
00002525 	 00000013 	 00002CE6 	 call 	 rb4
00002526 	 A0000003 	 0000057C 	  pop 	 [1404]
00002527 	 A0000003 	 0000057D 	  pop 	 [1405]
00002528 	 A0000003 	 0000057E 	  pop 	 [1406]
00002529 	 00000013 	 00002CE6 	 call 	 rb4
00002530 	 A0000003 	 000005DC 	  pop 	 [1500]
00002531 	 A0000003 	 000005DD 	  pop 	 [1501]
00002532 	 A0000003 	 000005DE 	  pop 	 [1502]
00002533 	 00000013 	 00002CE6 	 call 	 rb4
00002534 	 A0000003 	 00000198 	  pop 	 [408]
00002535 	 A0000003 	 00000199 	  pop 	 [409]
00002536 	 A0000003 	 0000019A 	  pop 	 [410]
00002537 	 00000013 	 00002CE6 	 call 	 rb4
00002538 	 A0000003 	 000001A7 	  pop 	 [423]
00002539 	 A0000003 	 000001A8 	  pop 	 [424]
00002540 	 A0000003 	 000001A9 	  pop 	 [425]
00002541 	 00000013 	 00002CE6 	 call 	 rb4
00002542 	 A0000003 	 000001F8 	  pop 	 [504]
00002543 	 A0000003 	 000001F9 	  pop 	 [505]
00002544 	 A0000003 	 000001FA 	  pop 	 [506]
00002545 	 00000013 	 00002CE6 	 call 	 rb4
00002546 	 A0000003 	 00000207 	  pop 	 [519]
00002547 	 A0000003 	 00000208 	  pop 	 [520]
00002548 	 A0000003 	 00000209 	  pop 	 [521]
00002549 	 00000013 	 00002CE6 	 call 	 rb4
00002550 	 A0000003 	 00000258 	  pop 	 [600]
00002551 	 A0000003 	 00000259 	  pop 	 [601]
00002552 	 A0000003 	 0000025A 	  pop 	 [602]
00002553 	 00000013 	 00002CE6 	 call 	 rb4
00002554 	 A0000003 	 00000267 	  pop 	 [615]
00002555 	 A0000003 	 00000268 	  pop 	 [616]
00002556 	 A0000003 	 00000269 	  pop 	 [617]
00002557 	 00000013 	 00002CE6 	 call 	 rb4
00002558 	 A0000003 	 000002B8 	  pop 	 [696]
00002559 	 A0000003 	 000002B9 	  pop 	 [697]
00002560 	 A0000003 	 000002BA 	  pop 	 [698]
00002561 	 00000013 	 00002CE6 	 call 	 rb4
00002562 	 A0000003 	 000002BB 	  pop 	 [699]
00002563 	 A0000003 	 000002BC 	  pop 	 [700]
00002564 	 A0000003 	 000002BD 	  pop 	 [701]
00002565 	 00000013 	 00002CE6 	 call 	 rb4
00002566 	 A0000003 	 000002BE 	  pop 	 [702]
00002567 	 A0000003 	 000002BF 	  pop 	 [703]
00002568 	 A0000003 	 000002C0 	  pop 	 [704]
00002569 	 00000013 	 00002CE6 	 call 	 rb4
00002570 	 A0000003 	 000002C1 	  pop 	 [705]
00002571 	 A0000003 	 000002C2 	  pop 	 [706]
00002572 	 A0000003 	 000002C3 	  pop 	 [707]
00002573 	 00000013 	 00002CE6 	 call 	 rb4
00002574 	 A0000003 	 000002C4 	  pop 	 [708]
00002575 	 A0000003 	 000002C5 	  pop 	 [709]
00002576 	 A0000003 	 000002C6 	  pop 	 [710]
00002577 	 00000013 	 00002CE6 	 call 	 rb4
00002578 	 A0000003 	 00000318 	  pop 	 [792]
00002579 	 A0000003 	 00000319 	  pop 	 [793]
00002580 	 A0000003 	 0000031A 	  pop 	 [794]
00002581 	 00000013 	 00002CE6 	 call 	 rb4
00002582 	 A0000003 	 00000378 	  pop 	 [888]
00002583 	 A0000003 	 00000379 	  pop 	 [889]
00002584 	 A0000003 	 0000037A 	  pop 	 [890]
00002585 	 00000013 	 00002CE6 	 call 	 rb4
00002586 	 A0000003 	 000003D8 	  pop 	 [984]
00002587 	 A0000003 	 000003D9 	  pop 	 [985]
00002588 	 A0000003 	 000003DA 	  pop 	 [986]
00002589 	 00000013 	 00002CE6 	 call 	 rb4
00002590 	 A0000003 	 00000438 	  pop 	 [1080]
00002591 	 A0000003 	 00000439 	  pop 	 [1081]
00002592 	 A0000003 	 0000043A 	  pop 	 [1082]
00002593 	 00000013 	 00002CE6 	 call 	 rb4
00002594 	 A0000003 	 00000498 	  pop 	 [1176]
00002595 	 A0000003 	 00000499 	  pop 	 [1177]
00002596 	 A0000003 	 0000049A 	  pop 	 [1178]
00002597 	 00000013 	 00002CE6 	 call 	 rb4
00002598 	 A0000003 	 000004F8 	  pop 	 [1272]
00002599 	 A0000003 	 000004F9 	  pop 	 [1273]
00002600 	 A0000003 	 000004FA 	  pop 	 [1274]
00002601 	 00000013 	 00002CE6 	 call 	 rb4
00002602 	 A0000003 	 00000558 	  pop 	 [1368]
00002603 	 A0000003 	 00000559 	  pop 	 [1369]
00002604 	 A0000003 	 0000055A 	  pop 	 [1370]
00002605 	 00000013 	 00002CE6 	 call 	 rb4
00002606 	 A0000003 	 000005B8 	  pop 	 [1464]
00002607 	 A0000003 	 000005B9 	  pop 	 [1465]
00002608 	 A0000003 	 000005BA 	  pop 	 [1466]
00002609 	 00000016 	          	 scan
00002610 	 00000017 	          	 draw
00002611 	 00000013 	 00002D1E 	 call 	 gray
00002612 	 A0000003 	 00000000 	  pop 	 [0]
00002613 	 A0000003 	 00000001 	  pop 	 [1]
00002614 	 A0000003 	 00000002 	  pop 	 [2]
00002615 	 00000013 	 00002D17 	 call 	 black
00002616 	 A0000003 	 00000003 	  pop 	 [3]
00002617 	 A0000003 	 00000004 	  pop 	 [4]
00002618 	 A0000003 	 00000005 	  pop 	 [5]
00002619 	 00000013 	 00002D1E 	 call 	 gray
00002620 	 A0000003 	 00000006 	  pop 	 [6]
00002621 	 A0000003 	 00000007 	  pop 	 [7]
00002622 	 A0000003 	 00000008 	  pop 	 [8]
00002623 	 00000013 	 00002D17 	 call 	 black
00002624 	 A0000003 	 00000009 	  pop 	 [9]
00002625 	 A0000003 	 0000000A 	  pop 	 [10]
00002626 	 A0000003 	 0000000B 	  pop 	 [11]
00002627 	 00000013 	 00002D1E 	 call 	 gray
00002628 	 A0000003 	 0000000C 	  pop 	 [12]
00002629 	 A0000003 	 0000000D 	  pop 	 [13]
00002630 	 A0000003 	 0000000E 	  pop 	 [14]
00002631 	 00000013 	 00002D17 	 call 	 black
00002632 	 A0000003 	 0000000F 	  pop 	 [15]
00002633 	 A0000003 	 00000010 	  pop 	 [16]
00002634 	 A0000003 	 00000011 	  pop 	 [17]
00002635 	 00000013 	 00002D1E 	 call 	 gray
00002636 	 A0000003 	 00000012 	  pop 	 [18]
00002637 	 A0000003 	 00000013 	  pop 	 [19]
00002638 	 A0000003 	 00000014 	  pop 	 [20]
00002639 	 00000013 	 00002D17 	 call 	 black
00002640 	 A0000003 	 00000015 	  pop 	 [21]
00002641 	 A0000003 	 00000016 	  pop 	 [22]
00002642 	 A0000003 	 00000017 	  pop 	 [23]
00002643 	 00000013 	 00002D1E 	 call 	 gray
00002644 	 A0000003 	 00000018 	  pop 	 [24]
00002645 	 A0000003 	 00000019 	  pop 	 [25]
00002646 	 A0000003 	 0000001A 	  pop 	 [26]
00002647 	 00000013 	 00002D17 	 call 	 black
00002648 	 A0000003 	 0000001B 	  pop 	 [27]
00002649 	 A0000003 	 0000001C 	  pop 	 [28]
00002650 	 A0000003 	 0000001D 	  pop 	 [29]
00002651 	 00000013 	 00002D1E 	 call 	 gray
00002652 	 A0000003 	 0000001E 	  pop 	 [30]
00002653 	 A0000003 	 0000001F 	  pop 	 [31]
00002654 	 A0000003 	 00000020 	  pop 	 [32]
00002655 	 00000013 	 00002D17 	 call 	 black
00002656 	 A0000003 	 00000021 	  pop 	 [33]
00002657 	 A0000003 	 00000022 	  pop 	 [34]
00002658 	 A0000003 	 00000023 	  pop 	 [35]
00002659 	 00000013 	 00002D1E 	 call 	 gray
00002660 	 A0000003 	 00000024 	  pop 	 [36]
00002661 	 A0000003 	 00000025 	  pop 	 [37]
00002662 	 A0000003 	 00000026 	  pop 	 [38]
00002663 	 00000013 	 00002D17 	 call 	 black
00002664 	 A0000003 	 00000027 	  pop 	 [39]
00002665 	 A0000003 	 00000028 	  pop 	 [40]
00002666 	 A0000003 	 00000029 	  pop 	 [41]
00002667 	 00000013 	 00002D1E 	 call 	 gray
00002668 	 A0000003 	 0000002A 	  pop 	 [42]
00002669 	 A0000003 	 0000002B 	  pop 	 [43]
00002670 	 A0000003 	 0000002C 	  pop 	 [44]
00002671 	 00000013 	 00002D17 	 call 	 black
00002672 	 A0000003 	 0000002D 	  pop 	 [45]
00002673 	 A0000003 	 0000002E 	  pop 	 [46]
00002674 	 A0000003 	 0000002F 	  pop 	 [47]
00002675 	 00000013 	 00002D1E 	 call 	 gray
00002676 	 A0000003 	 00000030 	  pop 	 [48]
00002677 	 A0000003 	 00000031 	  pop 	 [49]
00002678 	 A0000003 	 00000032 	  pop 	 [50]
00002679 	 00000013 	 00002D17 	 call 	 black
00002680 	 A0000003 	 00000033 	  pop 	 [51]
00002681 	 A0000003 	 00000034 	  pop 	 [52]
00002682 	 A0000003 	 00000035 	  pop 	 [53]
00002683 	 00000013 	 00002D1E 	 call 	 gray
00002684 	 A0000003 	 00000036 	  pop 	 [54]
00002685 	 A0000003 	 00000037 	  pop 	 [55]
00002686 	 A0000003 	 00000038 	  pop 	 [56]
00002687 	 00000013 	 00002D17 	 call 	 black
00002688 	 A0000003 	 00000039 	  pop 	 [57]
00002689 	 A0000003 	 0000003A 	  pop 	 [58]
00002690 	 A0000003 	 0000003B 	  pop 	 [59]
00002691 	 00000013 	 00002D1E 	 call 	 gray
00002692 	 A0000003 	 0000003C 	  pop 	 [60]
00002693 	 A0000003 	 0000003D 	  pop 	 [61]
00002694 	 A0000003 	 0000003E 	  pop 	 [62]
00002695 	 00000013 	 00002D17 	 call 	 black
00002696 	 A0000003 	 0000003F 	  pop 	 [63]
00002697 	 A0000003 	 00000040 	  pop 	 [64]
00002698 	 A0000003 	 00000041 	  pop 	 [65]
00002699 	 00000013 	 00002D1E 	 call 	 gray
00002700 	 A0000003 	 00000042 	  pop 	 [66]
00002701 	 A0000003 	 00000043 	  pop 	 [67]
00002702 	 A0000003 	 00000044 	  pop 	 [68]
00002703 	 00000013 	 00002D17 	 call 	 black
00002704 	 A0000003 	 00000045 	  pop 	 [69]
00002705 	 A0000003 	 00000046 	  pop 	 [70]
00002706 	 A0000003 	 00000047 	  pop 	 [71]
00002707 	 00000013 	 00002D1E 	 call 	 gray
00002708 	 A0000003 	 00000048 	  pop 	 [72]
00002709 	 A0000003 	 00000049 	  pop 	 [73]
00002710 	 A0000003 	 0000004A 	  pop 	 [74]
00002711 	 00000013 	 00002D17 	 call 	 black
00002712 	 A0000003 	 0000004B 	  pop 	 [75]
00002713 	 A0000003 	 0000004C 	  pop 	 [76]
00002714 	 A0000003 	 0000004D 	  pop 	 [77]
00002715 	 00000013 	 00002D1E 	 call 	 gray
00002716 	 A0000003 	 0000004E 	  pop 	 [78]
00002717 	 A0000003 	 0000004F 	  pop 	 [79]
00002718 	 A0000003 	 00000050 	  pop 	 [80]
00002719 	 00000013 	 00002D17 	 call 	 black
00002720 	 A0000003 	 00000051 	  pop 	 [81]
00002721 	 A0000003 	 00000052 	  pop 	 [82]
00002722 	 A0000003 	 00000053 	  pop 	 [83]
00002723 	 00000013 	 00002D1E 	 call 	 gray
00002724 	 A0000003 	 00000054 	  pop 	 [84]
00002725 	 A0000003 	 00000055 	  pop 	 [85]
00002726 	 A0000003 	 00000056 	  pop 	 [86]
00002727 	 00000013 	 00002D17 	 call 	 black
00002728 	 A0000003 	 00000057 	  pop 	 [87]
00002729 	 A0000003 	 00000058 	  pop 	 [88]
00002730 	 A0000003 	 00000059 	  pop 	 [89]
00002731 	 00000013 	 00002D1E 	 call 	 gray
00002732 	 A0000003 	 0000005A 	  pop 	 [90]
00002733 	 A0000003 	 0000005B 	  pop 	 [91]
00002734 	 A0000003 	 0000005C 	  pop 	 [92]
00002735 	 00000013 	 00002D17 	 call 	 black
00002736 	 A0000003 	 0000005D 	  pop 	 [93]
00002737 	 A0000003 	 0000005E 	  pop 	 [94]
00002738 	 A0000003 	 0000005F 	  pop 	 [95]
00002739 	 00000013 	 00002D1E 	 call 	 gray
00002740 	 A0000003 	 00000060 	  pop 	 [96]
00002741 	 A0000003 	 00000061 	  pop 	 [97]
00002742 	 A0000003 	 00000062 	  pop 	 [98]
00002743 	 00000013 	 00002D17 	 call 	 black
00002744 	 A0000003 	 00000063 	  pop 	 [99]
00002745 	 A0000003 	 00000064 	  pop 	 [100]
00002746 	 A0000003 	 00000065 	  pop 	 [101]
00002747 	 00000013 	 00002D1E 	 call 	 gray
00002748 	 A0000003 	 00000066 	  pop 	 [102]
00002749 	 A0000003 	 00000067 	  pop 	 [103]
00002750 	 A0000003 	 00000068 	  pop 	 [104]
00002751 	 00000013 	 00002D17 	 call 	 black
00002752 	 A0000003 	 00000069 	  pop 	 [105]
00002753 	 A0000003 	 0000006A 	  pop 	 [106]
00002754 	 A0000003 	 0000006B 	  pop 	 [107]
00002755 	 00000013 	 00002D1E 	 call 	 gray
00002756 	 A0000003 	 0000006C 	  pop 	 [108]
00002757 	 A0000003 	 0000006D 	  pop 	 [109]
00002758 	 A0000003 	 0000006E 	  pop 	 [110]
00002759 	 00000013 	 00002D17 	 call 	 black
00002760 	 A0000003 	 0000006F 	  pop 	 [111]
00002761 	 A0000003 	 00000070 	  pop 	 [112]
00002762 	 A0000003 	 00000071 	  pop 	 [113]
00002763 	 00000013 	 00002D1E 	 call 	 gray
00002764 	 A0000003 	 00000072 	  pop 	 [114]
00002765 	 A0000003 	 00000073 	  pop 	 [115]
00002766 	 A0000003 	 00000074 	  pop 	 [116]
00002767 	 00000013 	 00002D17 	 call 	 black
00002768 	 A0000003 	 00000075 	  pop 	 [117]
00002769 	 A0000003 	 00000076 	  pop 	 [118]
00002770 	 A0000003 	 00000077 	  pop 	 [119]
00002771 	 00000013 	 00002D1E 	 call 	 gray
00002772 	 A0000003 	 00000078 	  pop 	 [120]
00002773 	 A0000003 	 00000079 	  pop 	 [121]
00002774 	 A0000003 	 0000007A 	  pop 	 [122]
00002775 	 00000013 	 00002D17 	 call 	 black
00002776 	 A0000003 	 0000007B 	  pop 	 [123]
00002777 	 A0000003 	 0000007C 	  pop 	 [124]
00002778 	 A0000003 	 0000007D 	  pop 	 [125]
00002779 	 00000013 	 00002D1E 	 call 	 gray
00002780 	 A0000003 	 0000007E 	  pop 	 [126]
00002781 	 A0000003 	 0000007F 	  pop 	 [127]
00002782 	 A0000003 	 00000080 	  pop 	 [128]
00002783 	 00000013 	 00002D17 	 call 	 black
00002784 	 A0000003 	 00000081 	  pop 	 [129]
00002785 	 A0000003 	 00000082 	  pop 	 [130]
00002786 	 A0000003 	 00000083 	  pop 	 [131]
00002787 	 00000013 	 00002D1E 	 call 	 gray
00002788 	 A0000003 	 00000084 	  pop 	 [132]
00002789 	 A0000003 	 00000085 	  pop 	 [133]
00002790 	 A0000003 	 00000086 	  pop 	 [134]
00002791 	 00000013 	 00002D17 	 call 	 black
00002792 	 A0000003 	 00000087 	  pop 	 [135]
00002793 	 A0000003 	 00000088 	  pop 	 [136]
00002794 	 A0000003 	 00000089 	  pop 	 [137]
00002795 	 00000013 	 00002D1E 	 call 	 gray
00002796 	 A0000003 	 0000008A 	  pop 	 [138]
00002797 	 A0000003 	 0000008B 	  pop 	 [139]
00002798 	 A0000003 	 0000008C 	  pop 	 [140]
00002799 	 00000013 	 00002D17 	 call 	 black
00002800 	 A0000003 	 0000008D 	  pop 	 [141]
00002801 	 A0000003 	 0000008E 	  pop 	 [142]
00002802 	 A0000003 	 0000008F 	  pop 	 [143]
00002803 	 00000013 	 00002D1E 	 call 	 gray
00002804 	 A0000003 	 00000090 	  pop 	 [144]
00002805 	 A0000003 	 00000091 	  pop 	 [145]
00002806 	 A0000003 	 00000092 	  pop 	 [146]
00002807 	 00000013 	 00002D17 	 call 	 black
00002808 	 A0000003 	 00000093 	  pop 	 [147]
00002809 	 A0000003 	 00000094 	  pop 	 [148]
00002810 	 A0000003 	 00000095 	  pop 	 [149]
00002811 	 00000013 	 00002D1E 	 call 	 gray
00002812 	 A0000003 	 00000096 	  pop 	 [150]
00002813 	 A0000003 	 00000097 	  pop 	 [151]
00002814 	 A0000003 	 00000098 	  pop 	 [152]
00002815 	 00000013 	 00002D17 	 call 	 black
00002816 	 A0000003 	 00000099 	  pop 	 [153]
00002817 	 A0000003 	 0000009A 	  pop 	 [154]
00002818 	 A0000003 	 0000009B 	  pop 	 [155]
00002819 	 00000013 	 00002D1E 	 call 	 gray
00002820 	 A0000003 	 0000009C 	  pop 	 [156]
00002821 	 A0000003 	 0000009D 	  pop 	 [157]
00002822 	 A0000003 	 0000009E 	  pop 	 [158]
00002823 	 00000013 	 00002D17 	 call 	 black
00002824 	 A0000003 	 0000009F 	  pop 	 [159]
00002825 	 A0000003 	 000000A0 	  pop 	 [160]
00002826 	 A0000003 	 000000A1 	  pop 	 [161]
00002827 	 00000013 	 00002D1E 	 call 	 gray
00002828 	 A0000003 	 000000A2 	  pop 	 [162]
00002829 	 A0000003 	 000000A3 	  pop 	 [163]
00002830 	 A0000003 	 000000A4 	  pop 	 [164]
00002831 	 00000013 	 00002D17 	 call 	 black
00002832 	 A0000003 	 000000A5 	  pop 	 [165]
00002833 	 A0000003 	 000000A6 	  pop 	 [166]
00002834 	 A0000003 	 000000A7 	  pop 	 [167]
00002835 	 00000013 	 00002D1E 	 call 	 gray
00002836 	 A0000003 	 000000A8 	  pop 	 [168]
00002837 	 A0000003 	 000000A9 	  pop 	 [169]
00002838 	 A0000003 	 000000AA 	  pop 	 [170]
00002839 	 00000013 	 00002D17 	 call 	 black
00002840 	 A0000003 	 000000AB 	  pop 	 [171]
00002841 	 A0000003 	 000000AC 	  pop 	 [172]
00002842 	 A0000003 	 000000AD 	  pop 	 [173]
00002843 	 00000013 	 00002D1E 	 call 	 gray
00002844 	 A0000003 	 000000AE 	  pop 	 [174]
00002845 	 A0000003 	 000000AF 	  pop 	 [175]
00002846 	 A0000003 	 000000B0 	  pop 	 [176]
00002847 	 00000013 	 00002D17 	 call 	 black
00002848 	 A0000003 	 000000B1 	  pop 	 [177]
00002849 	 A0000003 	 000000B2 	  pop 	 [178]
00002850 	 A0000003 	 000000B3 	  pop 	 [179]
00002851 	 00000013 	 00002D1E 	 call 	 gray
00002852 	 A0000003 	 000000B4 	  pop 	 [180]
00002853 	 A0000003 	 000000B5 	  pop 	 [181]
00002854 	 A0000003 	 000000B6 	  pop 	 [182]
00002855 	 00000013 	 00002D17 	 call 	 black
00002856 	 A0000003 	 000000B7 	  pop 	 [183]
00002857 	 A0000003 	 000000B8 	  pop 	 [184]
00002858 	 A0000003 	 000000B9 	  pop 	 [185]
00002859 	 00000013 	 00002D1E 	 call 	 gray
00002860 	 A0000003 	 000000BA 	  pop 	 [186]
00002861 	 A0000003 	 000000BB 	  pop 	 [187]
00002862 	 A0000003 	 000000BC 	  pop 	 [188]
00002863 	 00000013 	 00002D17 	 call 	 black
00002864 	 A0000003 	 000000BD 	  pop 	 [189]
00002865 	 A0000003 	 000000BE 	  pop 	 [190]
00002866 	 A0000003 	 000000BF 	  pop 	 [191]
00002867 	 00000013 	 00002D1E 	 call 	 gray
00002868 	 A0000003 	 000000C0 	  pop 	 [192]
00002869 	 A0000003 	 000000C1 	  pop 	 [193]
00002870 	 A0000003 	 000000C2 	  pop 	 [194]
00002871 	 00000013 	 00002D17 	 call 	 black
00002872 	 A0000003 	 000000C3 	  pop 	 [195]
00002873 	 A0000003 	 000000C4 	  pop 	 [196]
00002874 	 A0000003 	 000000C5 	  pop 	 [197]
00002875 	 00000013 	 00002D1E 	 call 	 gray
00002876 	 A0000003 	 000000C6 	  pop 	 [198]
00002877 	 A0000003 	 000000C7 	  pop 	 [199]
00002878 	 A0000003 	 000000C8 	  pop 	 [200]
00002879 	 00000013 	 00002D17 	 call 	 black
00002880 	 A0000003 	 000000C9 	  pop 	 [201]
00002881 	 A0000003 	 000000CA 	  pop 	 [202]
00002882 	 A0000003 	 000000CB 	  pop 	 [203]
00002883 	 00000013 	 00002D1E 	 call 	 gray
00002884 	 A0000003 	 000000CC 	  pop 	 [204]
00002885 	 A0000003 	 000000CD 	  pop 	 [205]
00002886 	 A0000003 	 000000CE 	  pop 	 [206]
00002887 	 00000013 	 00002D17 	 call 	 black
00002888 	 A0000003 	 000000CF 	  pop 	 [207]
00002889 	 A0000003 	 000000D0 	  pop 	 [208]
00002890 	 A0000003 	 000000D1 	  pop 	 [209]
00002891 	 00000013 	 00002D1E 	 call 	 gray
00002892 	 A0000003 	 000000D2 	  pop 	 [210]
00002893 	 A0000003 	 000000D3 	  pop 	 [211]
00002894 	 A0000003 	 000000D4 	  pop 	 [212]
00002895 	 00000013 	 00002D17 	 call 	 black
00002896 	 A0000003 	 000000D5 	  pop 	 [213]
00002897 	 A0000003 	 000000D6 	  pop 	 [214]
00002898 	 A0000003 	 000000D7 	  pop 	 [215]
00002899 	 00000013 	 00002CED 	 call 	 rb5
00002900 	 A0000003 	 000000D8 	  pop 	 [216]
00002901 	 A0000003 	 000000D9 	  pop 	 [217]
00002902 	 A0000003 	 000000DA 	  pop 	 [218]
00002903 	 00000013 	 00002CED 	 call 	 rb5
00002904 	 A0000003 	 000000DB 	  pop 	 [219]
00002905 	 A0000003 	 000000DC 	  pop 	 [220]
00002906 	 A0000003 	 000000DD 	  pop 	 [221]
00002907 	 00000013 	 00002CED 	 call 	 rb5
00002908 	 A0000003 	 000000DE 	  pop 	 [222]
00002909 	 A0000003 	 000000DF 	  pop 	 [223]
00002910 	 A0000003 	 000000E0 	  pop 	 [224]
00002911 	 00000013 	 00002CED 	 call 	 rb5
00002912 	 A0000003 	 000000E1 	  pop 	 [225]
00002913 	 A0000003 	 000000E2 	  pop 	 [226]
00002914 	 A0000003 	 000000E3 	  pop 	 [227]
00002915 	 00000013 	 00002CED 	 call 	 rb5
00002916 	 A0000003 	 000000E4 	  pop 	 [228]
00002917 	 A0000003 	 000000E5 	  pop 	 [229]
00002918 	 A0000003 	 000000E6 	  pop 	 [230]
00002919 	 00000013 	 00002D17 	 call 	 black
00002920 	 A0000003 	 000000E7 	  pop 	 [231]
00002921 	 A0000003 	 000000E8 	  pop 	 [232]
00002922 	 A0000003 	 000000E9 	  pop 	 [233]
00002923 	 00000013 	 00002D1E 	 call 	 gray
00002924 	 A0000003 	 000000EA 	  pop 	 [234]
00002925 	 A0000003 	 000000EB 	  pop 	 [235]
00002926 	 A0000003 	 000000EC 	  pop 	 [236]
00002927 	 00000013 	 00002D17 	 call 	 black
00002928 	 A0000003 	 000000ED 	  pop 	 [237]
00002929 	 A0000003 	 000000EE 	  pop 	 [238]
00002930 	 A0000003 	 000000EF 	  pop 	 [239]
00002931 	 00000013 	 00002CED 	 call 	 rb5
00002932 	 A0000003 	 000000F0 	  pop 	 [240]
00002933 	 A0000003 	 000000F1 	  pop 	 [241]
00002934 	 A0000003 	 000000F2 	  pop 	 [242]
00002935 	 00000013 	 00002CED 	 call 	 rb5
00002936 	 A0000003 	 000000F3 	  pop 	 [243]
00002937 	 A0000003 	 000000F4 	  pop 	 [244]
00002938 	 A0000003 	 000000F5 	  pop 	 [245]
00002939 	 00000013 	 00002CED 	 call 	 rb5
00002940 	 A0000003 	 000000F6 	  pop 	 [246]
00002941 	 A0000003 	 000000F7 	  pop 	 [247]
00002942 	 A0000003 	 000000F8 	  pop 	 [248]
00002943 	 00000013 	 00002CED 	 call 	 rb5
00002944 	 A0000003 	 000000F9 	  pop 	 [249]
00002945 	 A0000003 	 000000FA 	  pop 	 [250]
00002946 	 A0000003 	 000000FB 	  pop 	 [251]
00002947 	 00000013 	 00002CED 	 call 	 rb5
00002948 	 A0000003 	 000000FC 	  pop 	 [252]
00002949 	 A0000003 	 000000FD 	  pop 	 [253]
00002950 	 A0000003 	 000000FE 	  pop 	 [254]
00002951 	 00000013 	 00002CED 	 call 	 rb5
00002952 	 A0000003 	 000000FF 	  pop 	 [255]
00002953 	 A0000003 	 00000100 	  pop 	 [256]
00002954 	 A0000003 	 00000101 	  pop 	 [257]
00002955 	 00000013 	 00002CED 	 call 	 rb5
00002956 	 A0000003 	 00000102 	  pop 	 [258]
00002957 	 A0000003 	 00000103 	  pop 	 [259]
00002958 	 A0000003 	 00000104 	  pop 	 [260]
00002959 	 00000013 	 00002CED 	 call 	 rb5
00002960 	 A0000003 	 00000105 	  pop 	 [261]
00002961 	 A0000003 	 00000106 	  pop 	 [262]
00002962 	 A0000003 	 00000107 	  pop 	 [263]
00002963 	 00000013 	 00002CED 	 call 	 rb5
00002964 	 A0000003 	 00000108 	  pop 	 [264]
00002965 	 A0000003 	 00000109 	  pop 	 [265]
00002966 	 A0000003 	 0000010A 	  pop 	 [266]
00002967 	 00000013 	 00002D17 	 call 	 black
00002968 	 A0000003 	 0000010B 	  pop 	 [267]
00002969 	 A0000003 	 0000010C 	  pop 	 [268]
00002970 	 A0000003 	 0000010D 	  pop 	 [269]
00002971 	 00000013 	 00002D1E 	 call 	 gray
00002972 	 A0000003 	 0000010E 	  pop 	 [270]
00002973 	 A0000003 	 0000010F 	  pop 	 [271]
00002974 	 A0000003 	 00000110 	  pop 	 [272]
00002975 	 00000013 	 00002D17 	 call 	 black
00002976 	 A0000003 	 00000111 	  pop 	 [273]
00002977 	 A0000003 	 00000112 	  pop 	 [274]
00002978 	 A0000003 	 00000113 	  pop 	 [275]
00002979 	 00000013 	 00002D1E 	 call 	 gray
00002980 	 A0000003 	 00000114 	  pop 	 [276]
00002981 	 A0000003 	 00000115 	  pop 	 [277]
00002982 	 A0000003 	 00000116 	  pop 	 [278]
00002983 	 00000013 	 00002D17 	 call 	 black
00002984 	 A0000003 	 00000117 	  pop 	 [279]
00002985 	 A0000003 	 00000118 	  pop 	 [280]
00002986 	 A0000003 	 00000119 	  pop 	 [281]
00002987 	 00000013 	 00002D1E 	 call 	 gray
00002988 	 A0000003 	 0000011A 	  pop 	 [282]
00002989 	 A0000003 	 0000011B 	  pop 	 [283]
00002990 	 A0000003 	 0000011C 	  pop 	 [284]
00002991 	 00000013 	 00002D17 	 call 	 black
00002992 	 A0000003 	 0000011D 	  pop 	 [285]
00002993 	 A0000003 	 0000011E 	  pop 	 [286]
00002994 	 A0000003 	 0000011F 	  pop 	 [287]
00002995 	 00000013 	 00002CED 	 call 	 rb5
00002996 	 A0000003 	 00000138 	  pop 	 [312]
00002997 	 A0000003 	 00000139 	  pop 	 [313]
00002998 	 A0000003 	 0000013A 	  pop 	 [314]
00002999 	 00000013 	 00002CED 	 call 	 rb5
00003000 	 A0000003 	 00000147 	  pop 	 [327]
00003001 	 A0000003 	 00000148 	  pop 	 [328]
00003002 	 A0000003 	 00000149 	  pop 	 [329]
00003003 	 00000013 	 00002CED 	 call 	 rb5
00003004 	 A0000003 	 0000015C 	  pop 	 [348]
00003005 	 A0000003 	 0000015D 	  pop 	 [349]
00003006 	 A0000003 	 0000015E 	  pop 	 [350]
00003007 	 00000013 	 00002CED 	 call 	 rb5
00003008 	 A0000003 	 000001BC 	  pop 	 [444]
00003009 	 A0000003 	 000001BD 	  pop 	 [445]
00003010 	 A0000003 	 000001BE 	  pop 	 [446]
00003011 	 00000013 	 00002CED 	 call 	 rb5
00003012 	 A0000003 	 0000021C 	  pop 	 [540]
00003013 	 A0000003 	 0000021D 	  pop 	 [541]
00003014 	 A0000003 	 0000021E 	  pop 	 [542]
00003015 	 00000013 	 00002CED 	 call 	 rb5
00003016 	 A0000003 	 0000027C 	  pop 	 [636]
00003017 	 A0000003 	 0000027D 	  pop 	 [637]
00003018 	 A0000003 	 0000027E 	  pop 	 [638]
00003019 	 00000013 	 00002CED 	 call 	 rb5
00003020 	 A0000003 	 000002DC 	  pop 	 [732]
00003021 	 A0000003 	 000002DD 	  pop 	 [733]
00003022 	 A0000003 	 000002DE 	  pop 	 [734]
00003023 	 00000013 	 00002CED 	 call 	 rb5
00003024 	 A0000003 	 0000033C 	  pop 	 [828]
00003025 	 A0000003 	 0000033D 	  pop 	 [829]
00003026 	 A0000003 	 0000033E 	  pop 	 [830]
00003027 	 00000013 	 00002CED 	 call 	 rb5
00003028 	 A0000003 	 0000039C 	  pop 	 [924]
00003029 	 A0000003 	 0000039D 	  pop 	 [925]
00003030 	 A0000003 	 0000039E 	  pop 	 [926]
00003031 	 00000013 	 00002CED 	 call 	 rb5
00003032 	 A0000003 	 000003FC 	  pop 	 [1020]
00003033 	 A0000003 	 000003FD 	  pop 	 [1021]
00003034 	 A0000003 	 000003FE 	  pop 	 [1022]
00003035 	 00000013 	 00002CED 	 call 	 rb5
00003036 	 A0000003 	 0000045C 	  pop 	 [1116]
00003037 	 A0000003 	 0000045D 	  pop 	 [1117]
00003038 	 A0000003 	 0000045E 	  pop 	 [1118]
00003039 	 00000013 	 00002CED 	 call 	 rb5
00003040 	 A0000003 	 000004BC 	  pop 	 [1212]
00003041 	 A0000003 	 000004BD 	  pop 	 [1213]
00003042 	 A0000003 	 000004BE 	  pop 	 [1214]
00003043 	 00000013 	 00002CED 	 call 	 rb5
00003044 	 A0000003 	 0000051C 	  pop 	 [1308]
00003045 	 A0000003 	 0000051D 	  pop 	 [1309]
00003046 	 A0000003 	 0000051E 	  pop 	 [1310]
00003047 	 00000013 	 00002CED 	 call 	 rb5
00003048 	 A0000003 	 0000057C 	  pop 	 [1404]
00003049 	 A0000003 	 0000057D 	  pop 	 [1405]
00003050 	 A0000003 	 0000057E 	  pop 	 [1406]
00003051 	 00000013 	 00002CED 	 call 	 rb5
00003052 	 A0000003 	 000005DC 	  pop 	 [1500]
00003053 	 A0000003 	 000005DD 	  pop 	 [1501]
00003054 	 A0000003 	 000005DE 	  pop 	 [1502]
00003055 	 00000013 	 00002CED 	 call 	 rb5
00003056 	 A0000003 	 00000198 	  pop 	 [408]
00003057 	 A0000003 	 00000199 	  pop 	 [409]
00003058 	 A0000003 	 0000019A 	  pop 	 [410]
00003059 	 00000013 	 00002CED 	 call 	 rb5
00003060 	 A0000003 	 000001A7 	  pop 	 [423]
00003061 	 A0000003 	 000001A8 	  pop 	 [424]
00003062 	 A0000003 	 000001A9 	  pop 	 [425]
00003063 	 00000013 	 00002CED 	 call 	 rb5
00003064 	 A0000003 	 000001F8 	  pop 	 [504]
00003065 	 A0000003 	 000001F9 	  pop 	 [505]
00003066 	 A0000003 	 000001FA 	  pop 	 [506]
00003067 	 00000013 	 00002CED 	 call 	 rb5
00003068 	 A0000003 	 00000207 	  pop 	 [519]
00003069 	 A0000003 	 00000208 	  pop 	 [520]
00003070 	 A0000003 	 00000209 	  pop 	 [521]
00003071 	 00000013 	 00002CED 	 call 	 rb5
00003072 	 A0000003 	 00000258 	  pop 	 [600]
00003073 	 A0000003 	 00000259 	  pop 	 [601]
00003074 	 A0000003 	 0000025A 	  pop 	 [602]
00003075 	 00000013 	 00002CED 	 call 	 rb5
00003076 	 A0000003 	 00000267 	  pop 	 [615]
00003077 	 A0000003 	 00000268 	  pop 	 [616]
00003078 	 A0000003 	 00000269 	  pop 	 [617]
00003079 	 00000013 	 00002CED 	 call 	 rb5
00003080 	 A0000003 	 000002B8 	  pop 	 [696]
00003081 	 A0000003 	 000002B9 	  pop 	 [697]
00003082 	 A0000003 	 000002BA 	  pop 	 [698]
00003083 	 00000013 	 00002CED 	 call 	 rb5
00003084 	 A0000003 	 000002BB 	  pop 	 [699]
00003085 	 A0000003 	 000002BC 	  pop 	 [700]
00003086 	 A0000003 	 000002BD 	  pop 	 [701]
00003087 	 00000013 	 00002CED 	 call 	 rb5
00003088 	 A0000003 	 000002BE 	  pop 	 [702]
00003089 	 A0000003 	 000002BF 	  pop 	 [703]
00003090 	 A0000003 	 000002C0 	  pop 	 [704]
00003091 	 00000013 	 00002CED 	 call 	 rb5
00003092 	 A0000003 	 000002C1 	  pop 	 [705]
00003093 	 A0000003 	 000002C2 	  pop 	 [706]
00003094 	 A0000003 	 000002C3 	  pop 	 [707]
00003095 	 00000013 	 00002CED 	 call 	 rb5
00003096 	 A0000003 	 000002C4 	  pop 	 [708]
00003097 	 A0000003 	 000002C5 	  pop 	 [709]
00003098 	 A0000003 	 000002C6 	  pop 	 [710]
00003099 	 00000013 	 00002CED 	 call 	 rb5
00003100 	 A0000003 	 00000318 	  pop 	 [792]
00003101 	 A0000003 	 00000319 	  pop 	 [793]
00003102 	 A0000003 	 0000031A 	  pop 	 [794]
00003103 	 00000013 	 00002CED 	 call 	 rb5
00003104 	 A0000003 	 00000378 	  pop 	 [888]
00003105 	 A0000003 	 00000379 	  pop 	 [889]
00003106 	 A0000003 	 0000037A 	  pop 	 [890]
00003107 	 00000013 	 00002CED 	 call 	 rb5
00003108 	 A0000003 	 000003D8 	  pop 	 [984]
00003109 	 A0000003 	 000003D9 	  pop 	 [985]
00003110 	 A0000003 	 000003DA 	  pop 	 [986]
00003111 	 00000013 	 00002CED 	 call 	 rb5
00003112 	 A0000003 	 00000438 	  pop 	 [1080]
00003113 	 A0000003 	 00000439 	  pop 	 [1081]
00003114 	 A0000003 	 0000043A 	  pop 	 [1082]
00003115 	 00000013 	 00002CED 	 call 	 rb5
00003116 	 A0000003 	 00000498 	  pop 	 [1176]
00003117 	 A0000003 	 00000499 	  pop 	 [1177]
00003118 	 A0000003 	 0000049A 	  pop 	 [1178]
00003119 	 00000013 	 00002CED 	 call 	 rb5
00003120 	 A0000003 	 000004F8 	  pop 	 [1272]
00003121 	 A0000003 	 000004F9 	  pop 	 [1273]
00003122 	 A0000003 	 000004FA 	  pop 	 [1274]
00003123 	 00000013 	 00002CED 	 call 	 rb5
00003124 	 A0000003 	 00000558 	  pop 	 [1368]
00003125 	 A0000003 	 00000559 	  pop 	 [1369]
00003126 	 A0000003 	 0000055A 	  pop 	 [1370]
00003127 	 00000013 	 00002CED 	 call 	 rb5
00003128 	 A0000003 	 000005B8 	  pop 	 [1464]
00003129 	 A0000003 	 000005B9 	  pop 	 [1465]
00003130 	 A0000003 	 000005BA 	  pop 	 [1466]
00003131 	 00000016 	          	 scan
00003132 	 00000017 	          	 draw
00003133 	 00000013 	 00002D1E 	 call 	 gray
00003134 	 A0000003 	 00000000 	  pop 	 [0]
00003135 	 A0000003 	 00000001 	  pop 	 [1]
00003136 	 A0000003 	 00000002 	  pop 	 [2]
00003137 	 00000013 	 00002D17 	 call 	 black
00003138 	 A0000003 	 00000003 	  pop 	 [3]
00003139 	 A0000003 	 00000004 	  pop 	 [4]
00003140 	 A0000003 	 00000005 	  pop 	 [5]
00003141 	 00000013 	 00002D1E 	 call 	 gray
00003142 	 A0000003 	 00000006 	  pop 	 [6]
00003143 	 A0000003 	 00000007 	  pop 	 [7]
00003144 	 A0000003 	 00000008 	  pop 	 [8]
00003145 	 00000013 	 00002D17 	 call 	 black
00003146 	 A0000003 	 00000009 	  pop 	 [9]
00003147 	 A0000003 	 0000000A 	  pop 	 [10]
00003148 	 A0000003 	 0000000B 	  pop 	 [11]
00003149 	 00000013 	 00002D1E 	 call 	 gray
00003150 	 A0000003 	 0000000C 	  pop 	 [12]
00003151 	 A0000003 	 0000000D 	  pop 	 [13]
00003152 	 A0000003 	 0000000E 	  pop 	 [14]
00003153 	 00000013 	 00002D17 	 call 	 black
00003154 	 A0000003 	 0000000F 	  pop 	 [15]
00003155 	 A0000003 	 00000010 	  pop 	 [16]
00003156 	 A0000003 	 00000011 	  pop 	 [17]
00003157 	 00000013 	 00002D1E 	 call 	 gray
00003158 	 A0000003 	 00000012 	  pop 	 [18]
00003159 	 A0000003 	 00000013 	  pop 	 [19]
00003160 	 A0000003 	 00000014 	  pop 	 [20]
00003161 	 00000013 	 00002D17 	 call 	 black
00003162 	 A0000003 	 00000015 	  pop 	 [21]
00003163 	 A0000003 	 00000016 	  pop 	 [22]
00003164 	 A0000003 	 00000017 	  pop 	 [23]
00003165 	 00000013 	 00002D1E 	 call 	 gray
00003166 	 A0000003 	 00000018 	  pop 	 [24]
00003167 	 A0000003 	 00000019 	  pop 	 [25]
00003168 	 A0000003 	 0000001A 	  pop 	 [26]
00003169 	 00000013 	 00002D17 	 call 	 black
00003170 	 A0000003 	 0000001B 	  pop 	 [27]
00003171 	 A0000003 	 0000001C 	  pop 	 [28]
00003172 	 A0000003 	 0000001D 	  pop 	 [29]
00003173 	 00000013 	 00002D1E 	 call 	 gray
00003174 	 A0000003 	 0000001E 	  pop 	 [30]
00003175 	 A0000003 	 0000001F 	  pop 	 [31]
00003176 	 A0000003 	 00000020 	  pop 	 [32]
00003177 	 00000013 	 00002D17 	 call 	 black
00003178 	 A0000003 	 00000021 	  pop 	 [33]
00003179 	 A0000003 	 00000022 	  pop 	 [34]
00003180 	 A0000003 	 00000023 	  pop 	 [35]
00003181 	 00000013 	 00002D1E 	 call 	 gray
00003182 	 A0000003 	 00000024 	  pop 	 [36]
00003183 	 A0000003 	 00000025 	  pop 	 [37]
00003184 	 A0000003 	 00000026 	  pop 	 [38]
00003185 	 00000013 	 00002D17 	 call 	 black
00003186 	 A0000003 	 00000027 	  pop 	 [39]
00003187 	 A0000003 	 00000028 	  pop 	 [40]
00003188 	 A0000003 	 00000029 	  pop 	 [41]
00003189 	 00000013 	 00002D1E 	 call 	 gray
00003190 	 A0000003 	 0000002A 	  pop 	 [42]
00003191 	 A0000003 	 0000002B 	  pop 	 [43]
00003192 	 A0000003 	 0000002C 	  pop 	 [44]
00003193 	 00000013 	 00002D17 	 call 	 black
00003194 	 A0000003 	 0000002D 	  pop 	 [45]
00003195 	 A0000003 	 0000002E 	  pop 	 [46]
00003196 	 A0000003 	 0000002F 	  pop 	 [47]
00003197 	 00000013 	 00002D1E 	 call 	 gray
00003198 	 A0000003 	 00000030 	  pop 	 [48]
00003199 	 A0000003 	 00000031 	  pop 	 [49]
00003200 	 A0000003 	 00000032 	  pop 	 [50]
00003201 	 00000013 	 00002D17 	 call 	 black
00003202 	 A0000003 	 00000033 	  pop 	 [51]
00003203 	 A0000003 	 00000034 	  pop 	 [52]
00003204 	 A0000003 	 00000035 	  pop 	 [53]
00003205 	 00000013 	 00002D1E 	 call 	 gray
00003206 	 A0000003 	 00000036 	  pop 	 [54]
00003207 	 A0000003 	 00000037 	  pop 	 [55]
00003208 	 A0000003 	 00000038 	  pop 	 [56]
00003209 	 00000013 	 00002D17 	 call 	 black
00003210 	 A0000003 	 00000039 	  pop 	 [57]
00003211 	 A0000003 	 0000003A 	  pop 	 [58]
00003212 	 A0000003 	 0000003B 	  pop 	 [59]
00003213 	 00000013 	 00002D1E 	 call 	 gray
00003214 	 A0000003 	 0000003C 	  pop 	 [60]
00003215 	 A0000003 	 0000003D 	  pop 	 [61]
00003216 	 A0000003 	 0000003E 	  pop 	 [62]
00003217 	 00000013 	 00002D17 	 call 	 black
00003218 	 A0000003 	 0000003F 	  pop 	 [63]
00003219 	 A0000003 	 00000040 	  pop 	 [64]
00003220 	 A0000003 	 00000041 	  pop 	 [65]
00003221 	 00000013 	 00002D1E 	 call 	 gray
00003222 	 A0000003 	 00000042 	  pop 	 [66]
00003223 	 A0000003 	 00000043 	  pop 	 [67]
00003224 	 A0000003 	 00000044 	  pop 	 [68]
00003225 	 00000013 	 00002D17 	 call 	 black
00003226 	 A0000003 	 00000045 	  pop 	 [69]
00003227 	 A0000003 	 00000046 	  pop 	 [70]
00003228 	 A0000003 	 00000047 	  pop 	 [71]
00003229 	 00000013 	 00002D1E 	 call 	 gray
00003230 	 A0000003 	 00000048 	  pop 	 [72]
00003231 	 A0000003 	 00000049 	  pop 	 [73]
00003232 	 A0000003 	 0000004A 	  pop 	 [74]
00003233 	 00000013 	 00002D17 	 call 	 black
00003234 	 A0000003 	 0000004B 	  pop 	 [75]
00003235 	 A0000003 	 0000004C 	  pop 	 [76]
00003236 	 A0000003 	 0000004D 	  pop 	 [77]
00003237 	 00000013 	 00002D1E 	 call 	 gray
00003238 	 A0000003 	 0000004E 	  pop 	 [78]
00003239 	 A0000003 	 0000004F 	  pop 	 [79]
00003240 	 A0000003 	 00000050 	  pop 	 [80]
00003241 	 00000013 	 00002D17 	 call 	 black
00003242 	 A0000003 	 00000051 	  pop 	 [81]
00003243 	 A0000003 	 00000052 	  pop 	 [82]
00003244 	 A0000003 	 00000053 	  pop 	 [83]
00003245 	 00000013 	 00002D1E 	 call 	 gray
00003246 	 A0000003 	 00000054 	  pop 	 [84]
00003247 	 A0000003 	 00000055 	  pop 	 [85]
00003248 	 A0000003 	 00000056 	  pop 	 [86]
00003249 	 00000013 	 00002D17 	 call 	 black
00003250 	 A0000003 	 00000057 	  pop 	 [87]
00003251 	 A0000003 	 00000058 	  pop 	 [88]
00003252 	 A0000003 	 00000059 	  pop 	 [89]
00003253 	 00000013 	 00002D1E 	 call 	 gray
00003254 	 A0000003 	 0000005A 	  pop 	 [90]
00003255 	 A0000003 	 0000005B 	  pop 	 [91]
00003256 	 A0000003 	 0000005C 	  pop 	 [92]
00003257 	 00000013 	 00002D17 	 call 	 black
00003258 	 A0000003 	 0000005D 	  pop 	 [93]
00003259 	 A0000003 	 0000005E 	  pop 	 [94]
00003260 	 A0000003 	 0000005F 	  pop 	 [95]
00003261 	 00000013 	 00002D1E 	 call 	 gray
00003262 	 A0000003 	 00000060 	  pop 	 [96]
00003263 	 A0000003 	 00000061 	  pop 	 [97]
00003264 	 A0000003 	 00000062 	  pop 	 [98]
00003265 	 00000013 	 00002D17 	 call 	 black
00003266 	 A0000003 	 00000063 	  pop 	 [99]
00003267 	 A0000003 	 00000064 	  pop 	 [100]
00003268 	 A0000003 	 00000065 	  pop 	 [101]
00003269 	 00000013 	 00002D1E 	 call 	 gray
00003270 	 A0000003 	 00000066 	  pop 	 [102]
00003271 	 A0000003 	 00000067 	  pop 	 [103]
00003272 	 A0000003 	 00000068 	  pop 	 [104]
00003273 	 00000013 	 00002D17 	 call 	 black
00003274 	 A0000003 	 00000069 	  pop 	 [105]
00003275 	 A0000003 	 0000006A 	  pop 	 [106]
00003276 	 A0000003 	 0000006B 	  pop 	 [107]
00003277 	 00000013 	 00002D1E 	 call 	 gray
00003278 	 A0000003 	 0000006C 	  pop 	 [108]
00003279 	 A0000003 	 0000006D 	  pop 	 [109]
00003280 	 A0000003 	 0000006E 	  pop 	 [110]
00003281 	 00000013 	 00002D17 	 call 	 black
00003282 	 A0000003 	 0000006F 	  pop 	 [111]
00003283 	 A0000003 	 00000070 	  pop 	 [112]
00003284 	 A0000003 	 00000071 	  pop 	 [113]
00003285 	 00000013 	 00002D1E 	 call 	 gray
00003286 	 A0000003 	 00000072 	  pop 	 [114]
00003287 	 A0000003 	 00000073 	  pop 	 [115]
00003288 	 A0000003 	 00000074 	  pop 	 [116]
00003289 	 00000013 	 00002D17 	 call 	 black
00003290 	 A0000003 	 00000075 	  pop 	 [117]
00003291 	 A0000003 	 00000076 	  pop 	 [118]
00003292 	 A0000003 	 00000077 	  pop 	 [119]
00003293 	 00000013 	 00002D1E 	 call 	 gray
00003294 	 A0000003 	 00000078 	  pop 	 [120]
00003295 	 A0000003 	 00000079 	  pop 	 [121]
00003296 	 A0000003 	 0000007A 	  pop 	 [122]
00003297 	 00000013 	 00002D17 	 call 	 black
00003298 	 A0000003 	 0000007B 	  pop 	 [123]
00003299 	 A0000003 	 0000007C 	  pop 	 [124]
00003300 	 A0000003 	 0000007D 	  pop 	 [125]
00003301 	 00000013 	 00002D1E 	 call 	 gray
00003302 	 A0000003 	 0000007E 	  pop 	 [126]
00003303 	 A0000003 	 0000007F 	  pop 	 [127]
00003304 	 A0000003 	 00000080 	  pop 	 [128]
00003305 	 00000013 	 00002D17 	 call 	 black
00003306 	 A0000003 	 00000081 	  pop 	 [129]
00003307 	 A0000003 	 00000082 	  pop 	 [130]
00003308 	 A0000003 	 00000083 	  pop 	 [131]
00003309 	 00000013 	 00002D1E 	 call 	 gray
00003310 	 A0000003 	 00000084 	  pop 	 [132]
00003311 	 A0000003 	 00000085 	  pop 	 [133]
00003312 	 A0000003 	 00000086 	  pop 	 [134]
00003313 	 00000013 	 00002D17 	 call 	 black
00003314 	 A0000003 	 00000087 	  pop 	 [135]
00003315 	 A0000003 	 00000088 	  pop 	 [136]
00003316 	 A0000003 	 00000089 	  pop 	 [137]
00003317 	 00000013 	 00002D1E 	 call 	 gray
00003318 	 A0000003 	 0000008A 	  pop 	 [138]
00003319 	 A0000003 	 0000008B 	  pop 	 [139]
00003320 	 A0000003 	 0000008C 	  pop 	 [140]
00003321 	 00000013 	 00002D17 	 call 	 black
00003322 	 A0000003 	 0000008D 	  pop 	 [141]
00003323 	 A0000003 	 0000008E 	  pop 	 [142]
00003324 	 A0000003 	 0000008F 	  pop 	 [143]
00003325 	 00000013 	 00002D1E 	 call 	 gray
00003326 	 A0000003 	 00000090 	  pop 	 [144]
00003327 	 A0000003 	 00000091 	  pop 	 [145]
00003328 	 A0000003 	 00000092 	  pop 	 [146]
00003329 	 00000013 	 00002D17 	 call 	 black
00003330 	 A0000003 	 00000093 	  pop 	 [147]
00003331 	 A0000003 	 00000094 	  pop 	 [148]
00003332 	 A0000003 	 00000095 	  pop 	 [149]
00003333 	 00000013 	 00002D1E 	 call 	 gray
00003334 	 A0000003 	 00000096 	  pop 	 [150]
00003335 	 A0000003 	 00000097 	  pop 	 [151]
00003336 	 A0000003 	 00000098 	  pop 	 [152]
00003337 	 00000013 	 00002D17 	 call 	 black
00003338 	 A0000003 	 00000099 	  pop 	 [153]
00003339 	 A0000003 	 0000009A 	  pop 	 [154]
00003340 	 A0000003 	 0000009B 	  pop 	 [155]
00003341 	 00000013 	 00002D1E 	 call 	 gray
00003342 	 A0000003 	 0000009C 	  pop 	 [156]
00003343 	 A0000003 	 0000009D 	  pop 	 [157]
00003344 	 A0000003 	 0000009E 	  pop 	 [158]
00003345 	 00000013 	 00002D17 	 call 	 black
00003346 	 A0000003 	 0000009F 	  pop 	 [159]
00003347 	 A0000003 	 000000A0 	  pop 	 [160]
00003348 	 A0000003 	 000000A1 	  pop 	 [161]
00003349 	 00000013 	 00002D1E 	 call 	 gray
00003350 	 A0000003 	 000000A2 	  pop 	 [162]
00003351 	 A0000003 	 000000A3 	  pop 	 [163]
00003352 	 A0000003 	 000000A4 	  pop 	 [164]
00003353 	 00000013 	 00002D17 	 call 	 black
00003354 	 A0000003 	 000000A5 	  pop 	 [165]
00003355 	 A0000003 	 000000A6 	  pop 	 [166]
00003356 	 A0000003 	 000000A7 	  pop 	 [167]
00003357 	 00000013 	 00002D1E 	 call 	 gray
00003358 	 A0000003 	 000000A8 	  pop 	 [168]
00003359 	 A0000003 	 000000A9 	  pop 	 [169]
00003360 	 A0000003 	 000000AA 	  pop 	 [170]
00003361 	 00000013 	 00002D17 	 call 	 black
00003362 	 A0000003 	 000000AB 	  pop 	 [171]
00003363 	 A0000003 	 000000AC 	  pop 	 [172]
00003364 	 A0000003 	 000000AD 	  pop 	 [173]
00003365 	 00000013 	 00002D1E 	 call 	 gray
00003366 	 A0000003 	 000000AE 	  pop 	 [174]
00003367 	 A0000003 	 000000AF 	  pop 	 [175]
00003368 	 A0000003 	 000000B0 	  pop 	 [176]
00003369 	 00000013 	 00002D17 	 call 	 black
00003370 	 A0000003 	 000000B1 	  pop 	 [177]
00003371 	 A0000003 	 000000B2 	  pop 	 [178]
00003372 	 A0000003 	 000000B3 	  pop 	 [179]
00003373 	 00000013 	 00002D1E 	 call 	 gray
00003374 	 A0000003 	 000000B4 	  pop 	 [180]
00003375 	 A0000003 	 000000B5 	  pop 	 [181]
00003376 	 A0000003 	 000000B6 	  pop 	 [182]
00003377 	 00000013 	 00002D17 	 call 	 black
00003378 	 A0000003 	 000000B7 	  pop 	 [183]
00003379 	 A0000003 	 000000B8 	  pop 	 [184]
00003380 	 A0000003 	 000000B9 	  pop 	 [185]
00003381 	 00000013 	 00002D1E 	 call 	 gray
00003382 	 A0000003 	 000000BA 	  pop 	 [186]
00003383 	 A0000003 	 000000BB 	  pop 	 [187]
00003384 	 A0000003 	 000000BC 	  pop 	 [188]
00003385 	 00000013 	 00002D17 	 call 	 black
00003386 	 A0000003 	 000000BD 	  pop 	 [189]
00003387 	 A0000003 	 000000BE 	  pop 	 [190]
00003388 	 A0000003 	 000000BF 	  pop 	 [191]
00003389 	 00000013 	 00002D1E 	 call 	 gray
00003390 	 A0000003 	 000000C0 	  pop 	 [192]
00003391 	 A0000003 	 000000C1 	  pop 	 [193]
00003392 	 A0000003 	 000000C2 	  pop 	 [194]
00003393 	 00000013 	 00002D17 	 call 	 black
00003394 	 A0000003 	 000000C3 	  pop 	 [195]
00003395 	 A0000003 	 000000C4 	  pop 	 [196]
00003396 	 A0000003 	 000000C5 	  pop 	 [197]
00003397 	 00000013 	 00002D1E 	 call 	 gray
00003398 	 A0000003 	 000000C6 	  pop 	 [198]
00003399 	 A0000003 	 000000C7 	  pop 	 [199]
00003400 	 A0000003 	 000000C8 	  pop 	 [200]
00003401 	 00000013 	 00002D17 	 call 	 black
00003402 	 A0000003 	 000000C9 	  pop 	 [201]
00003403 	 A0000003 	 000000CA 	  pop 	 [202]
00003404 	 A0000003 	 000000CB 	  pop 	 [203]
00003405 	 00000013 	 00002D1E 	 call 	 gray
00003406 	 A0000003 	 000000CC 	  pop 	 [204]
00003407 	 A0000003 	 000000CD 	  pop 	 [205]
00003408 	 A0000003 	 000000CE 	  pop 	 [206]
00003409 	 00000013 	 00002D17 	 call 	 black
00003410 	 A0000003 	 000000CF 	  pop 	 [207]
00003411 	 A0000003 	 000000D0 	  pop 	 [208]
00003412 	 A0000003 	 000000D1 	  pop 	 [209]
00003413 	 00000013 	 00002D1E 	 call 	 gray
00003414 	 A0000003 	 000000D2 	  pop 	 [210]
00003415 	 A0000003 	 000000D3 	  pop 	 [211]
00003416 	 A0000003 	 000000D4 	  pop 	 [212]
00003417 	 00000013 	 00002D17 	 call 	 black
00003418 	 A0000003 	 000000D5 	  pop 	 [213]
00003419 	 A0000003 	 000000D6 	  pop 	 [214]
00003420 	 A0000003 	 000000D7 	  pop 	 [215]
00003421 	 00000013 	 00002CF4 	 call 	 rb6
00003422 	 A0000003 	 000000D8 	  pop 	 [216]
00003423 	 A0000003 	 000000D9 	  pop 	 [217]
00003424 	 A0000003 	 000000DA 	  pop 	 [218]
00003425 	 00000013 	 00002CF4 	 call 	 rb6
00003426 	 A0000003 	 000000DB 	  pop 	 [219]
00003427 	 A0000003 	 000000DC 	  pop 	 [220]
00003428 	 A0000003 	 000000DD 	  pop 	 [221]
00003429 	 00000013 	 00002CF4 	 call 	 rb6
00003430 	 A0000003 	 000000DE 	  pop 	 [222]
00003431 	 A0000003 	 000000DF 	  pop 	 [223]
00003432 	 A0000003 	 000000E0 	  pop 	 [224]
00003433 	 00000013 	 00002CF4 	 call 	 rb6
00003434 	 A0000003 	 000000E1 	  pop 	 [225]
00003435 	 A0000003 	 000000E2 	  pop 	 [226]
00003436 	 A0000003 	 000000E3 	  pop 	 [227]
00003437 	 00000013 	 00002CF4 	 call 	 rb6
00003438 	 A0000003 	 000000E4 	  pop 	 [228]
00003439 	 A0000003 	 000000E5 	  pop 	 [229]
00003440 	 A0000003 	 000000E6 	  pop 	 [230]
00003441 	 00000013 	 00002D17 	 call 	 black
00003442 	 A0000003 	 000000E7 	  pop 	 [231]
00003443 	 A0000003 	 000000E8 	  pop 	 [232]
00003444 	 A0000003 	 000000E9 	  pop 	 [233]
00003445 	 00000013 	 00002D1E 	 call 	 gray
00003446 	 A0000003 	 000000EA 	  pop 	 [234]
00003447 	 A0000003 	 000000EB 	  pop 	 [235]
00003448 	 A0000003 	 000000EC 	  pop 	 [236]
00003449 	 00000013 	 00002D17 	 call 	 black
00003450 	 A0000003 	 000000ED 	  pop 	 [237]
00003451 	 A0000003 	 000000EE 	  pop 	 [238]
00003452 	 A0000003 	 000000EF 	  pop 	 [239]
00003453 	 00000013 	 00002CF4 	 call 	 rb6
00003454 	 A0000003 	 000000F0 	  pop 	 [240]
00003455 	 A0000003 	 000000F1 	  pop 	 [241]
00003456 	 A0000003 	 000000F2 	  pop 	 [242]
00003457 	 00000013 	 00002CF4 	 call 	 rb6
00003458 	 A0000003 	 000000F3 	  pop 	 [243]
00003459 	 A0000003 	 000000F4 	  pop 	 [244]
00003460 	 A0000003 	 000000F5 	  pop 	 [245]
00003461 	 00000013 	 00002CF4 	 call 	 rb6
00003462 	 A0000003 	 000000F6 	  pop 	 [246]
00003463 	 A0000003 	 000000F7 	  pop 	 [247]
00003464 	 A0000003 	 000000F8 	  pop 	 [248]
00003465 	 00000013 	 00002CF4 	 call 	 rb6
00003466 	 A0000003 	 000000F9 	  pop 	 [249]
00003467 	 A0000003 	 000000FA 	  pop 	 [250]
00003468 	 A0000003 	 000000FB 	  pop 	 [251]
00003469 	 00000013 	 00002CF4 	 call 	 rb6
00003470 	 A0000003 	 000000FC 	  pop 	 [252]
00003471 	 A0000003 	 000000FD 	  pop 	 [253]
00003472 	 A0000003 	 000000FE 	  pop 	 [254]
00003473 	 00000013 	 00002CF4 	 call 	 rb6
00003474 	 A0000003 	 000000FF 	  pop 	 [255]
00003475 	 A0000003 	 00000100 	  pop 	 [256]
00003476 	 A0000003 	 00000101 	  pop 	 [257]
00003477 	 00000013 	 00002CF4 	 call 	 rb6
00003478 	 A0000003 	 00000102 	  pop 	 [258]
00003479 	 A0000003 	 00000103 	  pop 	 [259]
00003480 	 A0000003 	 00000104 	  pop 	 [260]
00003481 	 00000013 	 00002CF4 	 call 	 rb6
00003482 	 A0000003 	 00000105 	  pop 	 [261]
00003483 	 A0000003 	 00000106 	  pop 	 [262]
00003484 	 A0000003 	 00000107 	  pop 	 [263]
00003485 	 00000013 	 00002CF4 	 call 	 rb6
00003486 	 A0000003 	 00000108 	  pop 	 [264]
00003487 	 A0000003 	 00000109 	  pop 	 [265]
00003488 	 A0000003 	 0000010A 	  pop 	 [266]
00003489 	 00000013 	 00002D17 	 call 	 black
00003490 	 A0000003 	 0000010B 	  pop 	 [267]
00003491 	 A0000003 	 0000010C 	  pop 	 [268]
00003492 	 A0000003 	 0000010D 	  pop 	 [269]
00003493 	 00000013 	 00002D1E 	 call 	 gray
00003494 	 A0000003 	 0000010E 	  pop 	 [270]
00003495 	 A0000003 	 0000010F 	  pop 	 [271]
00003496 	 A0000003 	 00000110 	  pop 	 [272]
00003497 	 00000013 	 00002D17 	 call 	 black
00003498 	 A0000003 	 00000111 	  pop 	 [273]
00003499 	 A0000003 	 00000112 	  pop 	 [274]
00003500 	 A0000003 	 00000113 	  pop 	 [275]
00003501 	 00000013 	 00002D1E 	 call 	 gray
00003502 	 A0000003 	 00000114 	  pop 	 [276]
00003503 	 A0000003 	 00000115 	  pop 	 [277]
00003504 	 A0000003 	 00000116 	  pop 	 [278]
00003505 	 00000013 	 00002D17 	 call 	 black
00003506 	 A0000003 	 00000117 	  pop 	 [279]
00003507 	 A0000003 	 00000118 	  pop 	 [280]
00003508 	 A0000003 	 00000119 	  pop 	 [281]
00003509 	 00000013 	 00002D1E 	 call 	 gray
00003510 	 A0000003 	 0000011A 	  pop 	 [282]
00003511 	 A0000003 	 0000011B 	  pop 	 [283]
00003512 	 A0000003 	 0000011C 	  pop 	 [284]
00003513 	 00000013 	 00002D17 	 call 	 black
00003514 	 A0000003 	 0000011D 	  pop 	 [285]
00003515 	 A0000003 	 0000011E 	  pop 	 [286]
00003516 	 A0000003 	 0000011F 	  pop 	 [287]
00003517 	 00000013 	 00002CF4 	 call 	 rb6
00003518 	 A0000003 	 00000138 	  pop 	 [312]
00003519 	 A0000003 	 00000139 	  pop 	 [313]
00003520 	 A0000003 	 0000013A 	  pop 	 [314]
00003521 	 00000013 	 00002CF4 	 call 	 rb6
00003522 	 A0000003 	 00000147 	  pop 	 [327]
00003523 	 A0000003 	 00000148 	  pop 	 [328]
00003524 	 A0000003 	 00000149 	  pop 	 [329]
00003525 	 00000013 	 00002CF4 	 call 	 rb6
00003526 	 A0000003 	 0000015C 	  pop 	 [348]
00003527 	 A0000003 	 0000015D 	  pop 	 [349]
00003528 	 A0000003 	 0000015E 	  pop 	 [350]
00003529 	 00000013 	 00002CF4 	 call 	 rb6
00003530 	 A0000003 	 000001BC 	  pop 	 [444]
00003531 	 A0000003 	 000001BD 	  pop 	 [445]
00003532 	 A0000003 	 000001BE 	  pop 	 [446]
00003533 	 00000013 	 00002CF4 	 call 	 rb6
00003534 	 A0000003 	 0000021C 	  pop 	 [540]
00003535 	 A0000003 	 0000021D 	  pop 	 [541]
00003536 	 A0000003 	 0000021E 	  pop 	 [542]
00003537 	 00000013 	 00002CF4 	 call 	 rb6
00003538 	 A0000003 	 0000027C 	  pop 	 [636]
00003539 	 A0000003 	 0000027D 	  pop 	 [637]
00003540 	 A0000003 	 0000027E 	  pop 	 [638]
00003541 	 00000013 	 00002CF4 	 call 	 rb6
00003542 	 A0000003 	 000002DC 	  pop 	 [732]
00003543 	 A0000003 	 000002DD 	  pop 	 [733]
00003544 	 A0000003 	 000002DE 	  pop 	 [734]
00003545 	 00000013 	 00002CF4 	 call 	 rb6
00003546 	 A0000003 	 0000033C 	  pop 	 [828]
00003547 	 A0000003 	 0000033D 	  pop 	 [829]
00003548 	 A0000003 	 0000033E 	  pop 	 [830]
00003549 	 00000013 	 00002CF4 	 call 	 rb6
00003550 	 A0000003 	 0000039C 	  pop 	 [924]
00003551 	 A0000003 	 0000039D 	  pop 	 [925]
00003552 	 A0000003 	 0000039E 	  pop 	 [926]
00003553 	 00000013 	 00002CF4 	 call 	 rb6
00003554 	 A0000003 	 000003FC 	  pop 	 [1020]
00003555 	 A0000003 	 000003FD 	  pop 	 [1021]
00003556 	 A0000003 	 000003FE 	  pop 	 [1022]
00003557 	 00000013 	 00002CF4 	 call 	 rb6
00003558 	 A0000003 	 0000045C 	  pop 	 [1116]
00003559 	 A0000003 	 0000045D 	  pop 	 [1117]
00003560 	 A0000003 	 0000045E 	  pop 	 [1118]
00003561 	 00000013 	 00002CF4 	 call 	 rb6
00003562 	 A0000003 	 000004BC 	  pop 	 [1212]
00003563 	 A0000003 	 000004BD 	  pop 	 [1213]
00003564 	 A0000003 	 000004BE 	  pop 	 [1214]
00003565 	 00000013 	 00002CF4 	 call 	 rb6
00003566 	 A0000003 	 0000051C 	  pop 	 [1308]
00003567 	 A0000003 	 0000051D 	  pop 	 [1309]
00003568 	 A0000003 	 0000051E 	  pop 	 [1310]
00003569 	 00000013 	 00002CF4 	 call 	 rb6
00003570 	 A0000003 	 0000057C 	  pop 	 [1404]
00003571 	 A0000003 	 0000057D 	  pop 	 [1405]
00003572 	 A0000003 	 0000057E 	  pop 	 [1406]
00003573 	 00000013 	 00002CF4 	 call 	 rb6
00003574 	 A0000003 	 000005DC 	  pop 	 [1500]
00003575 	 A0000003 	 000005DD 	  pop 	 [1501]
00003576 	 A0000003 	 000005DE 	  pop 	 [1502]
00003577 	 00000013 	 00002CF4 	 call 	 rb6
00003578 	 A0000003 	 00000198 	  pop 	 [408]
00003579 	 A0000003 	 00000199 	  pop 	 [409]
00003580 	 A0000003 	 0000019A 	  pop 	 [410]
00003581 	 00000013 	 00002CF4 	 call 	 rb6
00003582 	 A0000003 	 000001A7 	  pop 	 [423]
00003583 	 A0000003 	 000001A8 	  pop 	 [424]
00003584 	 A0000003 	 000001A9 	  pop 	 [425]
00003585 	 00000013 	 00002CF4 	 call 	 rb6
00003586 	 A0000003 	 000001F8 	  pop 	 [504]
00003587 	 A0000003 	 000001F9 	  pop 	 [505]
00003588 	 A0000003 	 000001FA 	  pop 	 [506]
00003589 	 00000013 	 00002CF4 	 call 	 rb6
00003590 	 A0000003 	 00000207 	  pop 	 [519]
00003591 	 A0000003 	 00000208 	  pop 	 [520]
00003592 	 A0000003 	 00000209 	  pop 	 [521]
00003593 	 00000013 	 00002CF4 	 call 	 rb6
00003594 	 A0000003 	 00000258 	  pop 	 [600]
00003595 	 A0000003 	 00000259 	  pop 	 [601]
00003596 	 A0000003 	 0000025A 	  pop 	 [602]
00003597 	 00000013 	 00002CF4 	 call 	 rb6
00003598 	 A0000003 	 00000267 	  pop 	 [615]
00003599 	 A0000003 	 00000268 	  pop 	 [616]
00003600 	 A0000003 	 00000269 	  pop 	 [617]
00003601 	 00000013 	 00002CF4 	 call 	 rb6
00003602 	 A0000003 	 000002B8 	  pop 	 [696]
00003603 	 A0000003 	 000002B9 	  pop 	 [697]
00003604 	 A0000003 	 000002BA 	  pop 	 [698]
00003605 	 00000013 	 00002CF4 	 call 	 rb6
00003606 	 A0000003 	 000002BB 	  pop 	 [699]
00003607 	 A0000003 	 000002BC 	  pop 	 [700]
00003608 	 A0000003 	 000002BD 	  pop 	 [701]
00003609 	 00000013 	 00002CF4 	 call 	 rb6
00003610 	 A0000003 	 000002BE 	  pop 	 [702]
00003611 	 A0000003 	 000002BF 	  pop 	 [703]
00003612 	 A0000003 	 000002C0 	  pop 	 [704]
00003613 	 00000013 	 00002CF4 	 call 	 rb6
00003614 	 A0000003 	 000002C1 	  pop 	 [705]
00003615 	 A0000003 	 000002C2 	  pop 	 [706]
00003616 	 A0000003 	 000002C3 	  pop 	 [707]
00003617 	 00000013 	 00002CF4 	 call 	 rb6
00003618 	 A0000003 	 000002C4 	  pop 	 [708]
00003619 	 A0000003 	 000002C5 	  pop 	 [709]
00003620 	 A0000003 	 000002C6 	  pop 	 [710]
00003621 	 00000013 	 00002CF4 	 call 	 rb6
00003622 	 A0000003 	 00000318 	  pop 	 [792]
00003623 	 A0000003 	 00000319 	  pop 	 [793]
00003624 	 A0000003 	 0000031A 	  pop 	 [794]
00003625 	 00000013 	 00002CF4 	 call 	 rb6
00003626 	 A0000003 	 00000378 	  pop 	 [888]
00003627 	 A0000003 	 00000379 	  pop 	 [889]
00003628 	 A0000003 	 0000037A 	  pop 	 [890]
00003629 	 00000013 	 00002CF4 	 call 	 rb6
00003630 	 A0000003 	 000003D8 	  pop 	 [984]
00003631 	 A0000003 	 000003D9 	  pop 	 [985]
00003632 	 A0000003 	 000003DA 	  pop 	 [986]
00003633 	 00000013 	 00002CF4 	 call 	 rb6
00003634 	 A0000003 	 00000438 	  pop 	 [1080]
00003635 	 A0000003 	 00000439 	  pop 	 [1081]
00003636 	 A0000003 	 0000043A 	  pop 	 [1082]
00003637 	 00000013 	 00002CF4 	 call 	 rb6
00003638 	 A0000003 	 00000498 	  pop 	 [1176]
00003639 	 A0000003 	 00000499 	  pop 	 [1177]
00003640 	 A0000003 	 0000049A 	  pop 	 [1178]
00003641 	 00000013 	 00002CF4 	 call 	 rb6
00003642 	 A0000003 	 000004F8 	  pop 	 [1272]
00003643 	 A0000003 	 000004F9 	  pop 	 [1273]
00003644 	 A0000003 	 000004FA 	  pop 	 [1274]
00003645 	 00000013 	 00002CF4 	 call 	 rb6
00003646 	 A0000003 	 00000558 	  pop 	 [1368]
00003647 	 A0000003 	 00000559 	  pop 	 [1369]
00003648 	 A0000003 	 0000055A 	  pop 	 [1370]
00003649 	 00000013 	 00002CF4 	 call 	 rb6
00003650 	 A0000003 	 000005B8 	  pop 	 [1464]
00003651 	 A0000003 	 000005B9 	  pop 	 [1465]
00003652 	 A0000003 	 000005BA 	  pop 	 [1466]
00003653 	 00000016 	          	 scan
00003654 	 00000017 	          	 draw
00003655 	 00000013 	 00002D1E 	 call 	 gray
00003656 	 A0000003 	 00000000 	  pop 	 [0]
00003657 	 A0000003 	 00000001 	  pop 	 [1]
00003658 	 A0000003 	 00000002 	  pop 	 [2]
00003659 	 00000013 	 00002D17 	 call 	 black
00003660 	 A0000003 	 00000003 	  pop 	 [3]
00003661 	 A0000003 	 00000004 	  pop 	 [4]
00003662 	 A0000003 	 00000005 	  pop 	 [5]
00003663 	 00000013 	 00002D1E 	 call 	 gray
00003664 	 A0000003 	 00000006 	  pop 	 [6]
00003665 	 A0000003 	 00000007 	  pop 	 [7]
00003666 	 A0000003 	 00000008 	  pop 	 [8]
00003667 	 00000013 	 00002D17 	 call 	 black
00003668 	 A0000003 	 00000009 	  pop 	 [9]
00003669 	 A0000003 	 0000000A 	  pop 	 [10]
00003670 	 A0000003 	 0000000B 	  pop 	 [11]
00003671 	 00000013 	 00002D1E 	 call 	 gray
00003672 	 A0000003 	 0000000C 	  pop 	 [12]
00003673 	 A0000003 	 0000000D 	  pop 	 [13]
00003674 	 A0000003 	 0000000E 	  pop 	 [14]
00003675 	 00000013 	 00002D17 	 call 	 black
00003676 	 A0000003 	 0000000F 	  pop 	 [15]
00003677 	 A0000003 	 00000010 	  pop 	 [16]
00003678 	 A0000003 	 00000011 	  pop 	 [17]
00003679 	 00000013 	 00002D1E 	 call 	 gray
00003680 	 A0000003 	 00000012 	  pop 	 [18]
00003681 	 A0000003 	 00000013 	  pop 	 [19]
00003682 	 A0000003 	 00000014 	  pop 	 [20]
00003683 	 00000013 	 00002D17 	 call 	 black
00003684 	 A0000003 	 00000015 	  pop 	 [21]
00003685 	 A0000003 	 00000016 	  pop 	 [22]
00003686 	 A0000003 	 00000017 	  pop 	 [23]
00003687 	 00000013 	 00002D1E 	 call 	 gray
00003688 	 A0000003 	 00000018 	  pop 	 [24]
00003689 	 A0000003 	 00000019 	  pop 	 [25]
00003690 	 A0000003 	 0000001A 	  pop 	 [26]
00003691 	 00000013 	 00002D17 	 call 	 black
00003692 	 A0000003 	 0000001B 	  pop 	 [27]
00003693 	 A0000003 	 0000001C 	  pop 	 [28]
00003694 	 A0000003 	 0000001D 	  pop 	 [29]
00003695 	 00000013 	 00002D1E 	 call 	 gray
00003696 	 A0000003 	 0000001E 	  pop 	 [30]
00003697 	 A0000003 	 0000001F 	  pop 	 [31]
00003698 	 A0000003 	 00000020 	  pop 	 [32]
00003699 	 00000013 	 00002D17 	 call 	 black
00003700 	 A0000003 	 00000021 	  pop 	 [33]
00003701 	 A0000003 	 00000022 	  pop 	 [34]
00003702 	 A0000003 	 00000023 	  pop 	 [35]
00003703 	 00000013 	 00002D1E 	 call 	 gray
00003704 	 A0000003 	 00000024 	  pop 	 [36]
00003705 	 A0000003 	 00000025 	  pop 	 [37]
00003706 	 A0000003 	 00000026 	  pop 	 [38]
00003707 	 00000013 	 00002D17 	 call 	 black
00003708 	 A0000003 	 00000027 	  pop 	 [39]
00003709 	 A0000003 	 00000028 	  pop 	 [40]
00003710 	 A0000003 	 00000029 	  pop 	 [41]
00003711 	 00000013 	 00002D1E 	 call 	 gray
00003712 	 A0000003 	 0000002A 	  pop 	 [42]
00003713 	 A0000003 	 0000002B 	  pop 	 [43]
00003714 	 A0000003 	 0000002C 	  pop 	 [44]
00003715 	 00000013 	 00002D17 	 call 	 black
00003716 	 A0000003 	 0000002D 	  pop 	 [45]
00003717 	 A0000003 	 0000002E 	  pop 	 [46]
00003718 	 A0000003 	 0000002F 	  pop 	 [47]
00003719 	 00000013 	 00002D1E 	 call 	 gray
00003720 	 A0000003 	 00000030 	  pop 	 [48]
00003721 	 A0000003 	 00000031 	  pop 	 [49]
00003722 	 A0000003 	 00000032 	  pop 	 [50]
00003723 	 00000013 	 00002D17 	 call 	 black
00003724 	 A0000003 	 00000033 	  pop 	 [51]
00003725 	 A0000003 	 00000034 	  pop 	 [52]
00003726 	 A0000003 	 00000035 	  pop 	 [53]
00003727 	 00000013 	 00002D1E 	 call 	 gray
00003728 	 A0000003 	 00000036 	  pop 	 [54]
00003729 	 A0000003 	 00000037 	  pop 	 [55]
00003730 	 A0000003 	 00000038 	  pop 	 [56]
00003731 	 00000013 	 00002D17 	 call 	 black
00003732 	 A0000003 	 00000039 	  pop 	 [57]
00003733 	 A0000003 	 0000003A 	  pop 	 [58]
00003734 	 A0000003 	 0000003B 	  pop 	 [59]
00003735 	 00000013 	 00002D1E 	 call 	 gray
00003736 	 A0000003 	 0000003C 	  pop 	 [60]
00003737 	 A0000003 	 0000003D 	  pop 	 [61]
00003738 	 A0000003 	 0000003E 	  pop 	 [62]
00003739 	 00000013 	 00002D17 	 call 	 black
00003740 	 A0000003 	 0000003F 	  pop 	 [63]
00003741 	 A0000003 	 00000040 	  pop 	 [64]
00003742 	 A0000003 	 00000041 	  pop 	 [65]
00003743 	 00000013 	 00002D1E 	 call 	 gray
00003744 	 A0000003 	 00000042 	  pop 	 [66]
00003745 	 A0000003 	 00000043 	  pop 	 [67]
00003746 	 A0000003 	 00000044 	  pop 	 [68]
00003747 	 00000013 	 00002D17 	 call 	 black
00003748 	 A0000003 	 00000045 	  pop 	 [69]
00003749 	 A0000003 	 00000046 	  pop 	 [70]
00003750 	 A0000003 	 00000047 	  pop 	 [71]
00003751 	 00000013 	 00002D1E 	 call 	 gray
00003752 	 A0000003 	 00000048 	  pop 	 [72]
00003753 	 A0000003 	 00000049 	  pop 	 [73]
00003754 	 A0000003 	 0000004A 	  pop 	 [74]
00003755 	 00000013 	 00002D17 	 call 	 black
00003756 	 A0000003 	 0000004B 	  pop 	 [75]
00003757 	 A0000003 	 0000004C 	  pop 	 [76]
00003758 	 A0000003 	 0000004D 	  pop 	 [77]
00003759 	 00000013 	 00002D1E 	 call 	 gray
00003760 	 A0000003 	 0000004E 	  pop 	 [78]
00003761 	 A0000003 	 0000004F 	  pop 	 [79]
00003762 	 A0000003 	 00000050 	  pop 	 [80]
00003763 	 00000013 	 00002D17 	 call 	 black
00003764 	 A0000003 	 00000051 	  pop 	 [81]
00003765 	 A0000003 	 00000052 	  pop 	 [82]
00003766 	 A0000003 	 00000053 	  pop 	 [83]
00003767 	 00000013 	 00002D1E 	 call 	 gray
00003768 	 A0000003 	 00000054 	  pop 	 [84]
00003769 	 A0000003 	 00000055 	  pop 	 [85]
00003770 	 A0000003 	 00000056 	  pop 	 [86]
00003771 	 00000013 	 00002D17 	 call 	 black
00003772 	 A0000003 	 00000057 	  pop 	 [87]
00003773 	 A0000003 	 00000058 	  pop 	 [88]
00003774 	 A0000003 	 00000059 	  pop 	 [89]
00003775 	 00000013 	 00002D1E 	 call 	 gray
00003776 	 A0000003 	 0000005A 	  pop 	 [90]
00003777 	 A0000003 	 0000005B 	  pop 	 [91]
00003778 	 A0000003 	 0000005C 	  pop 	 [92]
00003779 	 00000013 	 00002D17 	 call 	 black
00003780 	 A0000003 	 0000005D 	  pop 	 [93]
00003781 	 A0000003 	 0000005E 	  pop 	 [94]
00003782 	 A0000003 	 0000005F 	  pop 	 [95]
00003783 	 00000013 	 00002D1E 	 call 	 gray
00003784 	 A0000003 	 00000060 	  pop 	 [96]
00003785 	 A0000003 	 00000061 	  pop 	 [97]
00003786 	 A0000003 	 00000062 	  pop 	 [98]
00003787 	 00000013 	 00002D17 	 call 	 black
00003788 	 A0000003 	 00000063 	  pop 	 [99]
00003789 	 A0000003 	 00000064 	  pop 	 [100]
00003790 	 A0000003 	 00000065 	  pop 	 [101]
00003791 	 00000013 	 00002D1E 	 call 	 gray
00003792 	 A0000003 	 00000066 	  pop 	 [102]
00003793 	 A0000003 	 00000067 	  pop 	 [103]
00003794 	 A0000003 	 00000068 	  pop 	 [104]
00003795 	 00000013 	 00002D17 	 call 	 black
00003796 	 A0000003 	 00000069 	  pop 	 [105]
00003797 	 A0000003 	 0000006A 	  pop 	 [106]
00003798 	 A0000003 	 0000006B 	  pop 	 [107]
00003799 	 00000013 	 00002D1E 	 call 	 gray
00003800 	 A0000003 	 0000006C 	  pop 	 [108]
00003801 	 A0000003 	 0000006D 	  pop 	 [109]
00003802 	 A0000003 	 0000006E 	  pop 	 [110]
00003803 	 00000013 	 00002D17 	 call 	 black
00003804 	 A0000003 	 0000006F 	  pop 	 [111]
00003805 	 A0000003 	 00000070 	  pop 	 [112]
00003806 	 A0000003 	 00000071 	  pop 	 [113]
00003807 	 00000013 	 00002D1E 	 call 	 gray
00003808 	 A0000003 	 00000072 	  pop 	 [114]
00003809 	 A0000003 	 00000073 	  pop 	 [115]
00003810 	 A0000003 	 00000074 	  pop 	 [116]
00003811 	 00000013 	 00002D17 	 call 	 black
00003812 	 A0000003 	 00000075 	  pop 	 [117]
00003813 	 A0000003 	 00000076 	  pop 	 [118]
00003814 	 A0000003 	 00000077 	  pop 	 [119]
00003815 	 00000013 	 00002D1E 	 call 	 gray
00003816 	 A0000003 	 00000078 	  pop 	 [120]
00003817 	 A0000003 	 00000079 	  pop 	 [121]
00003818 	 A0000003 	 0000007A 	  pop 	 [122]
00003819 	 00000013 	 00002D17 	 call 	 black
00003820 	 A0000003 	 0000007B 	  pop 	 [123]
00003821 	 A0000003 	 0000007C 	  pop 	 [124]
00003822 	 A0000003 	 0000007D 	  pop 	 [125]
00003823 	 00000013 	 00002D1E 	 call 	 gray
00003824 	 A0000003 	 0000007E 	  pop 	 [126]
00003825 	 A0000003 	 0000007F 	  pop 	 [127]
00003826 	 A0000003 	 00000080 	  pop 	 [128]
00003827 	 00000013 	 00002D17 	 call 	 black
00003828 	 A0000003 	 00000081 	  pop 	 [129]
00003829 	 A0000003 	 00000082 	  pop 	 [130]
00003830 	 A0000003 	 00000083 	  pop 	 [131]
00003831 	 00000013 	 00002D1E 	 call 	 gray
00003832 	 A0000003 	 00000084 	  pop 	 [132]
00003833 	 A0000003 	 00000085 	  pop 	 [133]
00003834 	 A0000003 	 00000086 	  pop 	 [134]
00003835 	 00000013 	 00002D17 	 call 	 black
00003836 	 A0000003 	 00000087 	  pop 	 [135]
00003837 	 A0000003 	 00000088 	  pop 	 [136]
00003838 	 A0000003 	 00000089 	  pop 	 [137]
00003839 	 00000013 	 00002D1E 	 call 	 gray
00003840 	 A0000003 	 0000008A 	  pop 	 [138]
00003841 	 A0000003 	 0000008B 	  pop 	 [139]
00003842 	 A0000003 	 0000008C 	  pop 	 [140]
00003843 	 00000013 	 00002D17 	 call 	 black
00003844 	 A0000003 	 0000008D 	  pop 	 [141]
00003845 	 A0000003 	 0000008E 	  pop 	 [142]
00003846 	 A0000003 	 0000008F 	  pop 	 [143]
00003847 	 00000013 	 00002D1E 	 call 	 gray
00003848 	 A0000003 	 00000090 	  pop 	 [144]
00003849 	 A0000003 	 00000091 	  pop 	 [145]
00003850 	 A0000003 	 00000092 	  pop 	 [146]
00003851 	 00000013 	 00002D17 	 call 	 black
00003852 	 A0000003 	 00000093 	  pop 	 [147]
00003853 	 A0000003 	 00000094 	  pop 	 [148]
00003854 	 A0000003 	 00000095 	  pop 	 [149]
00003855 	 00000013 	 00002D1E 	 call 	 gray
00003856 	 A0000003 	 00000096 	  pop 	 [150]
00003857 	 A0000003 	 00000097 	  pop 	 [151]
00003858 	 A0000003 	 00000098 	  pop 	 [152]
00003859 	 00000013 	 00002D17 	 call 	 black
00003860 	 A0000003 	 00000099 	  pop 	 [153]
00003861 	 A0000003 	 0000009A 	  pop 	 [154]
00003862 	 A0000003 	 0000009B 	  pop 	 [155]
00003863 	 00000013 	 00002D1E 	 call 	 gray
00003864 	 A0000003 	 0000009C 	  pop 	 [156]
00003865 	 A0000003 	 0000009D 	  pop 	 [157]
00003866 	 A0000003 	 0000009E 	  pop 	 [158]
00003867 	 00000013 	 00002D17 	 call 	 black
00003868 	 A0000003 	 0000009F 	  pop 	 [159]
00003869 	 A0000003 	 000000A0 	  pop 	 [160]
00003870 	 A0000003 	 000000A1 	  pop 	 [161]
00003871 	 00000013 	 00002D1E 	 call 	 gray
00003872 	 A0000003 	 000000A2 	  pop 	 [162]
00003873 	 A0000003 	 000000A3 	  pop 	 [163]
00003874 	 A0000003 	 000000A4 	  pop 	 [164]
00003875 	 00000013 	 00002D17 	 call 	 black
00003876 	 A0000003 	 000000A5 	  pop 	 [165]
00003877 	 A0000003 	 000000A6 	  pop 	 [166]
00003878 	 A0000003 	 000000A7 	  pop 	 [167]
00003879 	 00000013 	 00002D1E 	 call 	 gray
00003880 	 A0000003 	 000000A8 	  pop 	 [168]
00003881 	 A0000003 	 000000A9 	  pop 	 [169]
00003882 	 A0000003 	 000000AA 	  pop 	 [170]
00003883 	 00000013 	 00002D17 	 call 	 black
00003884 	 A0000003 	 000000AB 	  pop 	 [171]
00003885 	 A0000003 	 000000AC 	  pop 	 [172]
00003886 	 A0000003 	 000000AD 	  pop 	 [173]
00003887 	 00000013 	 00002D1E 	 call 	 gray
00003888 	 A0000003 	 000000AE 	  pop 	 [174]
00003889 	 A0000003 	 000000AF 	  pop 	 [175]
00003890 	 A0000003 	 000000B0 	  pop 	 [176]
00003891 	 00000013 	 00002D17 	 call 	 black
00003892 	 A0000003 	 000000B1 	  pop 	 [177]
00003893 	 A0000003 	 000000B2 	  pop 	 [178]
00003894 	 A0000003 	 000000B3 	  pop 	 [179]
00003895 	 00000013 	 00002D1E 	 call 	 gray
00003896 	 A0000003 	 000000B4 	  pop 	 [180]
00003897 	 A0000003 	 000000B5 	  pop 	 [181]
00003898 	 A0000003 	 000000B6 	  pop 	 [182]
00003899 	 00000013 	 00002D17 	 call 	 black
00003900 	 A0000003 	 000000B7 	  pop 	 [183]
00003901 	 A0000003 	 000000B8 	  pop 	 [184]
00003902 	 A0000003 	 000000B9 	  pop 	 [185]
00003903 	 00000013 	 00002D1E 	 call 	 gray
00003904 	 A0000003 	 000000BA 	  pop 	 [186]
00003905 	 A0000003 	 000000BB 	  pop 	 [187]
00003906 	 A0000003 	 000000BC 	  pop 	 [188]
00003907 	 00000013 	 00002D17 	 call 	 black
00003908 	 A0000003 	 000000BD 	  pop 	 [189]
00003909 	 A0000003 	 000000BE 	  pop 	 [190]
00003910 	 A0000003 	 000000BF 	  pop 	 [191]
00003911 	 00000013 	 00002D1E 	 call 	 gray
00003912 	 A0000003 	 000000C0 	  pop 	 [192]
00003913 	 A0000003 	 000000C1 	  pop 	 [193]
00003914 	 A0000003 	 000000C2 	  pop 	 [194]
00003915 	 00000013 	 00002D17 	 call 	 black
00003916 	 A0000003 	 000000C3 	  pop 	 [195]
00003917 	 A0000003 	 000000C4 	  pop 	 [196]
00003918 	 A0000003 	 000000C5 	  pop 	 [197]
00003919 	 00000013 	 00002D1E 	 call 	 gray
00003920 	 A0000003 	 000000C6 	  pop 	 [198]
00003921 	 A0000003 	 000000C7 	  pop 	 [199]
00003922 	 A0000003 	 000000C8 	  pop 	 [200]
00003923 	 00000013 	 00002D17 	 call 	 black
00003924 	 A0000003 	 000000C9 	  pop 	 [201]
00003925 	 A0000003 	 000000CA 	  pop 	 [202]
00003926 	 A0000003 	 000000CB 	  pop 	 [203]
00003927 	 00000013 	 00002D1E 	 call 	 gray
00003928 	 A0000003 	 000000CC 	  pop 	 [204]
00003929 	 A0000003 	 000000CD 	  pop 	 [205]
00003930 	 A0000003 	 000000CE 	  pop 	 [206]
00003931 	 00000013 	 00002D17 	 call 	 black
00003932 	 A0000003 	 000000CF 	  pop 	 [207]
00003933 	 A0000003 	 000000D0 	  pop 	 [208]
00003934 	 A0000003 	 000000D1 	  pop 	 [209]
00003935 	 00000013 	 00002D1E 	 call 	 gray
00003936 	 A0000003 	 000000D2 	  pop 	 [210]
00003937 	 A0000003 	 000000D3 	  pop 	 [211]
00003938 	 A0000003 	 000000D4 	  pop 	 [212]
00003939 	 00000013 	 00002D17 	 call 	 black
00003940 	 A0000003 	 000000D5 	  pop 	 [213]
00003941 	 A0000003 	 000000D6 	  pop 	 [214]
00003942 	 A0000003 	 000000D7 	  pop 	 [215]
00003943 	 00000013 	 00002CFB 	 call 	 rb7
00003944 	 A0000003 	 000000D8 	  pop 	 [216]
00003945 	 A0000003 	 000000D9 	  pop 	 [217]
00003946 	 A0000003 	 000000DA 	  pop 	 [218]
00003947 	 00000013 	 00002CFB 	 call 	 rb7
00003948 	 A0000003 	 000000DB 	  pop 	 [219]
00003949 	 A0000003 	 000000DC 	  pop 	 [220]
00003950 	 A0000003 	 000000DD 	  pop 	 [221]
00003951 	 00000013 	 00002CFB 	 call 	 rb7
00003952 	 A0000003 	 000000DE 	  pop 	 [222]
00003953 	 A0000003 	 000000DF 	  pop 	 [223]
00003954 	 A0000003 	 000000E0 	  pop 	 [224]
00003955 	 00000013 	 00002CFB 	 call 	 rb7
00003956 	 A0000003 	 000000E1 	  pop 	 [225]
00003957 	 A0000003 	 000000E2 	  pop 	 [226]
00003958 	 A0000003 	 000000E3 	  pop 	 [227]
00003959 	 00000013 	 00002CFB 	 call 	 rb7
00003960 	 A0000003 	 000000E4 	  pop 	 [228]
00003961 	 A0000003 	 000000E5 	  pop 	 [229]
00003962 	 A0000003 	 000000E6 	  pop 	 [230]
00003963 	 00000013 	 00002D17 	 call 	 black
00003964 	 A0000003 	 000000E7 	  pop 	 [231]
00003965 	 A0000003 	 000000E8 	  pop 	 [232]
00003966 	 A0000003 	 000000E9 	  pop 	 [233]
00003967 	 00000013 	 00002D1E 	 call 	 gray
00003968 	 A0000003 	 000000EA 	  pop 	 [234]
00003969 	 A0000003 	 000000EB 	  pop 	 [235]
00003970 	 A0000003 	 000000EC 	  pop 	 [236]
00003971 	 00000013 	 00002D17 	 call 	 black
00003972 	 A0000003 	 000000ED 	  pop 	 [237]
00003973 	 A0000003 	 000000EE 	  pop 	 [238]
00003974 	 A0000003 	 000000EF 	  pop 	 [239]
00003975 	 00000013 	 00002CFB 	 call 	 rb7
00003976 	 A0000003 	 000000F0 	  pop 	 [240]
00003977 	 A0000003 	 000000F1 	  pop 	 [241]
00003978 	 A0000003 	 000000F2 	  pop 	 [242]
00003979 	 00000013 	 00002CFB 	 call 	 rb7
00003980 	 A0000003 	 000000F3 	  pop 	 [243]
00003981 	 A0000003 	 000000F4 	  pop 	 [244]
00003982 	 A0000003 	 000000F5 	  pop 	 [245]
00003983 	 00000013 	 00002CFB 	 call 	 rb7
00003984 	 A0000003 	 000000F6 	  pop 	 [246]
00003985 	 A0000003 	 000000F7 	  pop 	 [247]
00003986 	 A0000003 	 000000F8 	  pop 	 [248]
00003987 	 00000013 	 00002CFB 	 call 	 rb7
00003988 	 A0000003 	 000000F9 	  pop 	 [249]
00003989 	 A0000003 	 000000FA 	  pop 	 [250]
00003990 	 A0000003 	 000000FB 	  pop 	 [251]
00003991 	 00000013 	 00002CFB 	 call 	 rb7
00003992 	 A0000003 	 000000FC 	  pop 	 [252]
00003993 	 A0000003 	 000000FD 	  pop 	 [253]
00003994 	 A0000003 	 000000FE 	  pop 	 [254]
00003995 	 00000013 	 00002CFB 	 call 	 rb7
00003996 	 A0000003 	 000000FF 	  pop 	 [255]
00003997 	 A0000003 	 00000100 	  pop 	 [256]
00003998 	 A0000003 	 00000101 	  pop 	 [257]
00003999 	 00000013 	 00002CFB 	 call 	 rb7
00004000 	 A0000003 	 00000102 	  pop 	 [258]
00004001 	 A0000003 	 00000103 	  pop 	 [259]
00004002 	 A0000003 	 00000104 	  pop 	 [260]
00004003 	 00000013 	 00002CFB 	 call 	 rb7
00004004 	 A0000003 	 00000105 	  pop 	 [261]
00004005 	 A0000003 	 00000106 	  pop 	 [262]
00004006 	 A0000003 	 00000107 	  pop 	 [263]
00004007 	 00000013 	 00002CFB 	 call 	 rb7
00004008 	 A0000003 	 00000108 	  pop 	 [264]
00004009 	 A0000003 	 00000109 	  pop 	 [265]
00004010 	 A0000003 	 0000010A 	  pop 	 [266]
00004011 	 00000013 	 00002D17 	 call 	 black
00004012 	 A0000003 	 0000010B 	  pop 	 [267]
00004013 	 A0000003 	 0000010C 	  pop 	 [268]
00004014 	 A0000003 	 0000010D 	  pop 	 [269]
00004015 	 00000013 	 00002D1E 	 call 	 gray
00004016 	 A0000003 	 0000010E 	  pop 	 [270]
00004017 	 A0000003 	 0000010F 	  pop 	 [271]
00004018 	 A0000003 	 00000110 	  pop 	 [272]
00004019 	 00000013 	 00002D17 	 call 	 black
00004020 	 A0000003 	 00000111 	  pop 	 [273]
00004021 	 A0000003 	 00000112 	  pop 	 [274]
00004022 	 A0000003 	 00000113 	  pop 	 [275]
00004023 	 00000013 	 00002D1E 	 call 	 gray
00004024 	 A0000003 	 00000114 	  pop 	 [276]
00004025 	 A0000003 	 00000115 	  pop 	 [277]
00004026 	 A0000003 	 00000116 	  pop 	 [278]
00004027 	 00000013 	 00002D17 	 call 	 black
00004028 	 A0000003 	 00000117 	  pop 	 [279]
00004029 	 A0000003 	 00000118 	  pop 	 [280]
00004030 	 A0000003 	 00000119 	  pop 	 [281]
00004031 	 00000013 	 00002D1E 	 call 	 gray
00004032 	 A0000003 	 0000011A 	  pop 	 [282]
00004033 	 A0000003 	 0000011B 	  pop 	 [283]
00004034 	 A0000003 	 0000011C 	  pop 	 [284]
00004035 	 00000013 	 00002D17 	 call 	 black
00004036 	 A0000003 	 0000011D 	  pop 	 [285]
00004037 	 A0000003 	 0000011E 	  pop 	 [286]
00004038 	 A0000003 	 0000011F 	  pop 	 [287]
00004039 	 00000013 	 00002CFB 	 call 	 rb7
00004040 	 A0000003 	 00000138 	  pop 	 [312]
00004041 	 A0000003 	 00000139 	  pop 	 [313]
00004042 	 A0000003 	 0000013A 	  pop 	 [314]
00004043 	 00000013 	 00002CFB 	 call 	 rb7
00004044 	 A0000003 	 00000147 	  pop 	 [327]
00004045 	 A0000003 	 00000148 	  pop 	 [328]
00004046 	 A0000003 	 00000149 	  pop 	 [329]
00004047 	 00000013 	 00002CFB 	 call 	 rb7
00004048 	 A0000003 	 0000015C 	  pop 	 [348]
00004049 	 A0000003 	 0000015D 	  pop 	 [349]
00004050 	 A0000003 	 0000015E 	  pop 	 [350]
00004051 	 00000013 	 00002CFB 	 call 	 rb7
00004052 	 A0000003 	 000001BC 	  pop 	 [444]
00004053 	 A0000003 	 000001BD 	  pop 	 [445]
00004054 	 A0000003 	 000001BE 	  pop 	 [446]
00004055 	 00000013 	 00002CFB 	 call 	 rb7
00004056 	 A0000003 	 0000021C 	  pop 	 [540]
00004057 	 A0000003 	 0000021D 	  pop 	 [541]
00004058 	 A0000003 	 0000021E 	  pop 	 [542]
00004059 	 00000013 	 00002CFB 	 call 	 rb7
00004060 	 A0000003 	 0000027C 	  pop 	 [636]
00004061 	 A0000003 	 0000027D 	  pop 	 [637]
00004062 	 A0000003 	 0000027E 	  pop 	 [638]
00004063 	 00000013 	 00002CFB 	 call 	 rb7
00004064 	 A0000003 	 000002DC 	  pop 	 [732]
00004065 	 A0000003 	 000002DD 	  pop 	 [733]
00004066 	 A0000003 	 000002DE 	  pop 	 [734]
00004067 	 00000013 	 00002CFB 	 call 	 rb7
00004068 	 A0000003 	 0000033C 	  pop 	 [828]
00004069 	 A0000003 	 0000033D 	  pop 	 [829]
00004070 	 A0000003 	 0000033E 	  pop 	 [830]
00004071 	 00000013 	 00002CFB 	 call 	 rb7
00004072 	 A0000003 	 0000039C 	  pop 	 [924]
00004073 	 A0000003 	 0000039D 	  pop 	 [925]
00004074 	 A0000003 	 0000039E 	  pop 	 [926]
00004075 	 00000013 	 00002CFB 	 call 	 rb7
00004076 	 A0000003 	 000003FC 	  pop 	 [1020]
00004077 	 A0000003 	 000003FD 	  pop 	 [1021]
00004078 	 A0000003 	 000003FE 	  pop 	 [1022]
00004079 	 00000013 	 00002CFB 	 call 	 rb7
00004080 	 A0000003 	 0000045C 	  pop 	 [1116]
00004081 	 A0000003 	 0000045D 	  pop 	 [1117]
00004082 	 A0000003 	 0000045E 	  pop 	 [1118]
00004083 	 00000013 	 00002CFB 	 call 	 rb7
00004084 	 A0000003 	 000004BC 	  pop 	 [1212]
00004085 	 A0000003 	 000004BD 	  pop 	 [1213]
00004086 	 A0000003 	 000004BE 	  pop 	 [1214]
00004087 	 00000013 	 00002CFB 	 call 	 rb7
00004088 	 A0000003 	 0000051C 	  pop 	 [1308]
00004089 	 A0000003 	 0000051D 	  pop 	 [1309]
00004090 	 A0000003 	 0000051E 	  pop 	 [1310]
00004091 	 00000013 	 00002CFB 	 call 	 rb7
00004092 	 A0000003 	 0000057C 	  pop 	 [1404]
00004093 	 A0000003 	 0000057D 	  pop 	 [1405]
00004094 	 A0000003 	 0000057E 	  pop 	 [1406]
00004095 	 00000013 	 00002CFB 	 call 	 rb7
00004096 	 A0000003 	 000005DC 	  pop 	 [1500]
00004097 	 A0000003 	 000005DD 	  pop 	 [1501]
00004098 	 A0000003 	 000005DE 	  pop 	 [1502]
00004099 	 00000013 	 00002CFB 	 call 	 rb7
00004100 	 A0000003 	 00000198 	  pop 	 [408]
00004101 	 A0000003 	 00000199 	  pop 	 [409]
00004102 	 A0000003 	 0000019A 	  pop 	 [410]
00004103 	 00000013 	 00002CFB 	 call 	 rb7
00004104 	 A0000003 	 000001A7 	  pop 	 [423]
00004105 	 A0000003 	 000001A8 	  pop 	 [424]
00004106 	 A0000003 	 000001A9 	  pop 	 [425]
00004107 	 00000013 	 00002CFB 	 call 	 rb7
00004108 	 A0000003 	 000001F8 	  pop 	 [504]
00004109 	 A0000003 	 000001F9 	  pop 	 [505]
00004110 	 A0000003 	 000001FA 	  pop 	 [506]
00004111 	 00000013 	 00002CFB 	 call 	 rb7
00004112 	 A0000003 	 00000207 	  pop 	 [519]
00004113 	 A0000003 	 00000208 	  pop 	 [520]
00004114 	 A0000003 	 00000209 	  pop 	 [521]
00004115 	 00000013 	 00002CFB 	 call 	 rb7
00004116 	 A0000003 	 00000258 	  pop 	 [600]
00004117 	 A0000003 	 00000259 	  pop 	 [601]
00004118 	 A0000003 	 0000025A 	  pop 	 [602]
00004119 	 00000013 	 00002CFB 	 call 	 rb7
00004120 	 A0000003 	 00000267 	  pop 	 [615]
00004121 	 A0000003 	 00000268 	  pop 	 [616]
00004122 	 A0000003 	 00000269 	  pop 	 [617]
00004123 	 00000013 	 00002CFB 	 call 	 rb7
00004124 	 A0000003 	 000002B8 	  pop 	 [696]
00004125 	 A0000003 	 000002B9 	  pop 	 [697]
00004126 	 A0000003 	 000002BA 	  pop 	 [698]
00004127 	 00000013 	 00002CFB 	 call 	 rb7
00004128 	 A0000003 	 000002BB 	  pop 	 [699]
00004129 	 A0000003 	 000002BC 	  pop 	 [700]
00004130 	 A0000003 	 000002BD 	  pop 	 [701]
00004131 	 00000013 	 00002CFB 	 call 	 rb7
00004132 	 A0000003 	 000002BE 	  pop 	 [702]
00004133 	 A0000003 	 000002BF 	  pop 	 [703]
00004134 	 A0000003 	 000002C0 	  pop 	 [704]
00004135 	 00000013 	 00002CFB 	 call 	 rb7
00004136 	 A0000003 	 000002C1 	  pop 	 [705]
00004137 	 A0000003 	 000002C2 	  pop 	 [706]
00004138 	 A0000003 	 000002C3 	  pop 	 [707]
00004139 	 00000013 	 00002CFB 	 call 	 rb7
00004140 	 A0000003 	 000002C4 	  pop 	 [708]
00004141 	 A0000003 	 000002C5 	  pop 	 [709]
00004142 	 A0000003 	 000002C6 	  pop 	 [710]
00004143 	 00000013 	 00002CFB 	 call 	 rb7
00004144 	 A0000003 	 00000318 	  pop 	 [792]
00004145 	 A0000003 	 00000319 	  pop 	 [793]
00004146 	 A0000003 	 0000031A 	  pop 	 [794]
00004147 	 00000013 	 00002CFB 	 call 	 rb7
00004148 	 A0000003 	 00000378 	  pop 	 [888]
00004149 	 A0000003 	 00000379 	  pop 	 [889]
00004150 	 A0000003 	 0000037A 	  pop 	 [890]
00004151 	 00000013 	 00002CFB 	 call 	 rb7
00004152 	 A0000003 	 000003D8 	  pop 	 [984]
00004153 	 A0000003 	 000003D9 	  pop 	 [985]
00004154 	 A0000003 	 000003DA 	  pop 	 [986]
00004155 	 00000013 	 00002CFB 	 call 	 rb7
00004156 	 A0000003 	 00000438 	  pop 	 [1080]
00004157 	 A0000003 	 00000439 	  pop 	 [1081]
00004158 	 A0000003 	 0000043A 	  pop 	 [1082]
00004159 	 00000013 	 00002CFB 	 call 	 rb7
00004160 	 A0000003 	 00000498 	  pop 	 [1176]
00004161 	 A0000003 	 00000499 	  pop 	 [1177]
00004162 	 A0000003 	 0000049A 	  pop 	 [1178]
00004163 	 00000013 	 00002CFB 	 call 	 rb7
00004164 	 A0000003 	 000004F8 	  pop 	 [1272]
00004165 	 A0000003 	 000004F9 	  pop 	 [1273]
00004166 	 A0000003 	 000004FA 	  pop 	 [1274]
00004167 	 00000013 	 00002CFB 	 call 	 rb7
00004168 	 A0000003 	 00000558 	  pop 	 [1368]
00004169 	 A0000003 	 00000559 	  pop 	 [1369]
00004170 	 A0000003 	 0000055A 	  pop 	 [1370]
00004171 	 00000013 	 00002CFB 	 call 	 rb7
00004172 	 A0000003 	 000005B8 	  pop 	 [1464]
00004173 	 A0000003 	 000005B9 	  pop 	 [1465]
00004174 	 A0000003 	 000005BA 	  pop 	 [1466]
00004175 	 00000016 	          	 scan
00004176 	 00000017 	          	 draw
00004177 	 00000013 	 00002D1E 	 call 	 gray
00004178 	 A0000003 	 00000000 	  pop 	 [0]
00004179 	 A0000003 	 00000001 	  pop 	 [1]
00004180 	 A0000003 	 00000002 	  pop 	 [2]
00004181 	 00000013 	 00002D17 	 call 	 black
00004182 	 A0000003 	 00000003 	  pop 	 [3]
00004183 	 A0000003 	 00000004 	  pop 	 [4]
00004184 	 A0000003 	 00000005 	  pop 	 [5]
00004185 	 00000013 	 00002D1E 	 call 	 gray
00004186 	 A0000003 	 00000006 	  pop 	 [6]
00004187 	 A0000003 	 00000007 	  pop 	 [7]
00004188 	 A0000003 	 00000008 	  pop 	 [8]
00004189 	 00000013 	 00002D17 	 call 	 black
00004190 	 A0000003 	 00000009 	  pop 	 [9]
00004191 	 A0000003 	 0000000A 	  pop 	 [10]
00004192 	 A0000003 	 0000000B 	  pop 	 [11]
00004193 	 00000013 	 00002D1E 	 call 	 gray
00004194 	 A0000003 	 0000000C 	  pop 	 [12]
00004195 	 A0000003 	 0000000D 	  pop 	 [13]
00004196 	 A0000003 	 0000000E 	  pop 	 [14]
00004197 	 00000013 	 00002D17 	 call 	 black
00004198 	 A0000003 	 0000000F 	  pop 	 [15]
00004199 	 A0000003 	 00000010 	  pop 	 [16]
00004200 	 A0000003 	 00000011 	  pop 	 [17]
00004201 	 00000013 	 00002D1E 	 call 	 gray
00004202 	 A0000003 	 00000012 	  pop 	 [18]
00004203 	 A0000003 	 00000013 	  pop 	 [19]
00004204 	 A0000003 	 00000014 	  pop 	 [20]
00004205 	 00000013 	 00002D17 	 call 	 black
00004206 	 A0000003 	 00000015 	  pop 	 [21]
00004207 	 A0000003 	 00000016 	  pop 	 [22]
00004208 	 A0000003 	 00000017 	  pop 	 [23]
00004209 	 00000013 	 00002D1E 	 call 	 gray
00004210 	 A0000003 	 00000018 	  pop 	 [24]
00004211 	 A0000003 	 00000019 	  pop 	 [25]
00004212 	 A0000003 	 0000001A 	  pop 	 [26]
00004213 	 00000013 	 00002D17 	 call 	 black
00004214 	 A0000003 	 0000001B 	  pop 	 [27]
00004215 	 A0000003 	 0000001C 	  pop 	 [28]
00004216 	 A0000003 	 0000001D 	  pop 	 [29]
00004217 	 00000013 	 00002D1E 	 call 	 gray
00004218 	 A0000003 	 0000001E 	  pop 	 [30]
00004219 	 A0000003 	 0000001F 	  pop 	 [31]
00004220 	 A0000003 	 00000020 	  pop 	 [32]
00004221 	 00000013 	 00002D17 	 call 	 black
00004222 	 A0000003 	 00000021 	  pop 	 [33]
00004223 	 A0000003 	 00000022 	  pop 	 [34]
00004224 	 A0000003 	 00000023 	  pop 	 [35]
00004225 	 00000013 	 00002D1E 	 call 	 gray
00004226 	 A0000003 	 00000024 	  pop 	 [36]
00004227 	 A0000003 	 00000025 	  pop 	 [37]
00004228 	 A0000003 	 00000026 	  pop 	 [38]
00004229 	 00000013 	 00002D17 	 call 	 black
00004230 	 A0000003 	 00000027 	  pop 	 [39]
00004231 	 A0000003 	 00000028 	  pop 	 [40]
00004232 	 A0000003 	 00000029 	  pop 	 [41]
00004233 	 00000013 	 00002D1E 	 call 	 gray
00004234 	 A0000003 	 0000002A 	  pop 	 [42]
00004235 	 A0000003 	 0000002B 	  pop 	 [43]
00004236 	 A0000003 	 0000002C 	  pop 	 [44]
00004237 	 00000013 	 00002D17 	 call 	 black
00004238 	 A0000003 	 0000002D 	  pop 	 [45]
00004239 	 A0000003 	 0000002E 	  pop 	 [46]
00004240 	 A0000003 	 0000002F 	  pop 	 [47]
00004241 	 00000013 	 00002D1E 	 call 	 gray
00004242 	 A0000003 	 00000030 	  pop 	 [48]
00004243 	 A0000003 	 00000031 	  pop 	 [49]
00004244 	 A0000003 	 00000032 	  pop 	 [50]
00004245 	 00000013 	 00002D17 	 call 	 black
00004246 	 A0000003 	 00000033 	  pop 	 [51]
00004247 	 A0000003 	 00000034 	  pop 	 [52]
00004248 	 A0000003 	 00000035 	  pop 	 [53]
00004249 	 00000013 	 00002D1E 	 call 	 gray
00004250 	 A0000003 	 00000036 	  pop 	 [54]
00004251 	 A0000003 	 00000037 	  pop 	 [55]
00004252 	 A0000003 	 00000038 	  pop 	 [56]
00004253 	 00000013 	 00002D17 	 call 	 black
00004254 	 A0000003 	 00000039 	  pop 	 [57]
00004255 	 A0000003 	 0000003A 	  pop 	 [58]
00004256 	 A0000003 	 0000003B 	  pop 	 [59]
00004257 	 00000013 	 00002D1E 	 call 	 gray
00004258 	 A0000003 	 0000003C 	  pop 	 [60]
00004259 	 A0000003 	 0000003D 	  pop 	 [61]
00004260 	 A0000003 	 0000003E 	  pop 	 [62]
00004261 	 00000013 	 00002D17 	 call 	 black
00004262 	 A0000003 	 0000003F 	  pop 	 [63]
00004263 	 A0000003 	 00000040 	  pop 	 [64]
00004264 	 A0000003 	 00000041 	  pop 	 [65]
00004265 	 00000013 	 00002D1E 	 call 	 gray
00004266 	 A0000003 	 00000042 	  pop 	 [66]
00004267 	 A0000003 	 00000043 	  pop 	 [67]
00004268 	 A0000003 	 00000044 	  pop 	 [68]
00004269 	 00000013 	 00002D17 	 call 	 black
00004270 	 A0000003 	 00000045 	  pop 	 [69]
00004271 	 A0000003 	 00000046 	  pop 	 [70]
00004272 	 A0000003 	 00000047 	  pop 	 [71]
00004273 	 00000013 	 00002D1E 	 call 	 gray
00004274 	 A0000003 	 00000048 	  pop 	 [72]
00004275 	 A0000003 	 00000049 	  pop 	 [73]
00004276 	 A0000003 	 0000004A 	  pop 	 [74]
00004277 	 00000013 	 00002D17 	 call 	 black
00004278 	 A0000003 	 0000004B 	  pop 	 [75]
00004279 	 A0000003 	 0000004C 	  pop 	 [76]
00004280 	 A0000003 	 0000004D 	  pop 	 [77]
00004281 	 00000013 	 00002D1E 	 call 	 gray
00004282 	 A0000003 	 0000004E 	  pop 	 [78]
00004283 	 A0000003 	 0000004F 	  pop 	 [79]
00004284 	 A0000003 	 00000050 	  pop 	 [80]
00004285 	 00000013 	 00002D17 	 call 	 black
00004286 	 A0000003 	 00000051 	  pop 	 [81]
00004287 	 A0000003 	 00000052 	  pop 	 [82]
00004288 	 A0000003 	 00000053 	  pop 	 [83]
00004289 	 00000013 	 00002D1E 	 call 	 gray
00004290 	 A0000003 	 00000054 	  pop 	 [84]
00004291 	 A0000003 	 00000055 	  pop 	 [85]
00004292 	 A0000003 	 00000056 	  pop 	 [86]
00004293 	 00000013 	 00002D17 	 call 	 black
00004294 	 A0000003 	 00000057 	  pop 	 [87]
00004295 	 A0000003 	 00000058 	  pop 	 [88]
00004296 	 A0000003 	 00000059 	  pop 	 [89]
00004297 	 00000013 	 00002D1E 	 call 	 gray
00004298 	 A0000003 	 0000005A 	  pop 	 [90]
00004299 	 A0000003 	 0000005B 	  pop 	 [91]
00004300 	 A0000003 	 0000005C 	  pop 	 [92]
00004301 	 00000013 	 00002D17 	 call 	 black
00004302 	 A0000003 	 0000005D 	  pop 	 [93]
00004303 	 A0000003 	 0000005E 	  pop 	 [94]
00004304 	 A0000003 	 0000005F 	  pop 	 [95]
00004305 	 00000013 	 00002D1E 	 call 	 gray
00004306 	 A0000003 	 00000060 	  pop 	 [96]
00004307 	 A0000003 	 00000061 	  pop 	 [97]
00004308 	 A0000003 	 00000062 	  pop 	 [98]
00004309 	 00000013 	 00002D17 	 call 	 black
00004310 	 A0000003 	 00000063 	  pop 	 [99]
00004311 	 A0000003 	 00000064 	  pop 	 [100]
00004312 	 A0000003 	 00000065 	  pop 	 [101]
00004313 	 00000013 	 00002D1E 	 call 	 gray
00004314 	 A0000003 	 00000066 	  pop 	 [102]
00004315 	 A0000003 	 00000067 	  pop 	 [103]
00004316 	 A0000003 	 00000068 	  pop 	 [104]
00004317 	 00000013 	 00002D17 	 call 	 black
00004318 	 A0000003 	 00000069 	  pop 	 [105]
00004319 	 A0000003 	 0000006A 	  pop 	 [106]
00004320 	 A0000003 	 0000006B 	  pop 	 [107]
00004321 	 00000013 	 00002D1E 	 call 	 gray
00004322 	 A0000003 	 0000006C 	  pop 	 [108]
00004323 	 A0000003 	 0000006D 	  pop 	 [109]
00004324 	 A0000003 	 0000006E 	  pop 	 [110]
00004325 	 00000013 	 00002D17 	 call 	 black
00004326 	 A0000003 	 0000006F 	  pop 	 [111]
00004327 	 A0000003 	 00000070 	  pop 	 [112]
00004328 	 A0000003 	 00000071 	  pop 	 [113]
00004329 	 00000013 	 00002D1E 	 call 	 gray
00004330 	 A0000003 	 00000072 	  pop 	 [114]
00004331 	 A0000003 	 00000073 	  pop 	 [115]
00004332 	 A0000003 	 00000074 	  pop 	 [116]
00004333 	 00000013 	 00002D17 	 call 	 black
00004334 	 A0000003 	 00000075 	  pop 	 [117]
00004335 	 A0000003 	 00000076 	  pop 	 [118]
00004336 	 A0000003 	 00000077 	  pop 	 [119]
00004337 	 00000013 	 00002D1E 	 call 	 gray
00004338 	 A0000003 	 00000078 	  pop 	 [120]
00004339 	 A0000003 	 00000079 	  pop 	 [121]
00004340 	 A0000003 	 0000007A 	  pop 	 [122]
00004341 	 00000013 	 00002D17 	 call 	 black
00004342 	 A0000003 	 0000007B 	  pop 	 [123]
00004343 	 A0000003 	 0000007C 	  pop 	 [124]
00004344 	 A0000003 	 0000007D 	  pop 	 [125]
00004345 	 00000013 	 00002D1E 	 call 	 gray
00004346 	 A0000003 	 0000007E 	  pop 	 [126]
00004347 	 A0000003 	 0000007F 	  pop 	 [127]
00004348 	 A0000003 	 00000080 	  pop 	 [128]
00004349 	 00000013 	 00002D17 	 call 	 black
00004350 	 A0000003 	 00000081 	  pop 	 [129]
00004351 	 A0000003 	 00000082 	  pop 	 [130]
00004352 	 A0000003 	 00000083 	  pop 	 [131]
00004353 	 00000013 	 00002D1E 	 call 	 gray
00004354 	 A0000003 	 00000084 	  pop 	 [132]
00004355 	 A0000003 	 00000085 	  pop 	 [133]
00004356 	 A0000003 	 00000086 	  pop 	 [134]
00004357 	 00000013 	 00002D17 	 call 	 black
00004358 	 A0000003 	 00000087 	  pop 	 [135]
00004359 	 A0000003 	 00000088 	  pop 	 [136]
00004360 	 A0000003 	 00000089 	  pop 	 [137]
00004361 	 00000013 	 00002D1E 	 call 	 gray
00004362 	 A0000003 	 0000008A 	  pop 	 [138]
00004363 	 A0000003 	 0000008B 	  pop 	 [139]
00004364 	 A0000003 	 0000008C 	  pop 	 [140]
00004365 	 00000013 	 00002D17 	 call 	 black
00004366 	 A0000003 	 0000008D 	  pop 	 [141]
00004367 	 A0000003 	 0000008E 	  pop 	 [142]
00004368 	 A0000003 	 0000008F 	  pop 	 [143]
00004369 	 00000013 	 00002D1E 	 call 	 gray
00004370 	 A0000003 	 00000090 	  pop 	 [144]
00004371 	 A0000003 	 00000091 	  pop 	 [145]
00004372 	 A0000003 	 00000092 	  pop 	 [146]
00004373 	 00000013 	 00002D17 	 call 	 black
00004374 	 A0000003 	 00000093 	  pop 	 [147]
00004375 	 A0000003 	 00000094 	  pop 	 [148]
00004376 	 A0000003 	 00000095 	  pop 	 [149]
00004377 	 00000013 	 00002D1E 	 call 	 gray
00004378 	 A0000003 	 00000096 	  pop 	 [150]
00004379 	 A0000003 	 00000097 	  pop 	 [151]
00004380 	 A0000003 	 00000098 	  pop 	 [152]
00004381 	 00000013 	 00002D17 	 call 	 black
00004382 	 A0000003 	 00000099 	  pop 	 [153]
00004383 	 A0000003 	 0000009A 	  pop 	 [154]
00004384 	 A0000003 	 0000009B 	  pop 	 [155]
00004385 	 00000013 	 00002D1E 	 call 	 gray
00004386 	 A0000003 	 0000009C 	  pop 	 [156]
00004387 	 A0000003 	 0000009D 	  pop 	 [157]
00004388 	 A0000003 	 0000009E 	  pop 	 [158]
00004389 	 00000013 	 00002D17 	 call 	 black
00004390 	 A0000003 	 0000009F 	  pop 	 [159]
00004391 	 A0000003 	 000000A0 	  pop 	 [160]
00004392 	 A0000003 	 000000A1 	  pop 	 [161]
00004393 	 00000013 	 00002D1E 	 call 	 gray
00004394 	 A0000003 	 000000A2 	  pop 	 [162]
00004395 	 A0000003 	 000000A3 	  pop 	 [163]
00004396 	 A0000003 	 000000A4 	  pop 	 [164]
00004397 	 00000013 	 00002D17 	 call 	 black
00004398 	 A0000003 	 000000A5 	  pop 	 [165]
00004399 	 A0000003 	 000000A6 	  pop 	 [166]
00004400 	 A0000003 	 000000A7 	  pop 	 [167]
00004401 	 00000013 	 00002D1E 	 call 	 gray
00004402 	 A0000003 	 000000A8 	  pop 	 [168]
00004403 	 A0000003 	 000000A9 	  pop 	 [169]
00004404 	 A0000003 	 000000AA 	  pop 	 [170]
00004405 	 00000013 	 00002D17 	 call 	 black
00004406 	 A0000003 	 000000AB 	  pop 	 [171]
00004407 	 A0000003 	 000000AC 	  pop 	 [172]
00004408 	 A0000003 	 000000AD 	  pop 	 [173]
00004409 	 00000013 	 00002D1E 	 call 	 gray
00004410 	 A0000003 	 000000AE 	  pop 	 [174]
00004411 	 A0000003 	 000000AF 	  pop 	 [175]
00004412 	 A0000003 	 000000B0 	  pop 	 [176]
00004413 	 00000013 	 00002D17 	 call 	 black
00004414 	 A0000003 	 000000B1 	  pop 	 [177]
00004415 	 A0000003 	 000000B2 	  pop 	 [178]
00004416 	 A0000003 	 000000B3 	  pop 	 [179]
00004417 	 00000013 	 00002D1E 	 call 	 gray
00004418 	 A0000003 	 000000B4 	  pop 	 [180]
00004419 	 A0000003 	 000000B5 	  pop 	 [181]
00004420 	 A0000003 	 000000B6 	  pop 	 [182]
00004421 	 00000013 	 00002D17 	 call 	 black
00004422 	 A0000003 	 000000B7 	  pop 	 [183]
00004423 	 A0000003 	 000000B8 	  pop 	 [184]
00004424 	 A0000003 	 000000B9 	  pop 	 [185]
00004425 	 00000013 	 00002D1E 	 call 	 gray
00004426 	 A0000003 	 000000BA 	  pop 	 [186]
00004427 	 A0000003 	 000000BB 	  pop 	 [187]
00004428 	 A0000003 	 000000BC 	  pop 	 [188]
00004429 	 00000013 	 00002D17 	 call 	 black
00004430 	 A0000003 	 000000BD 	  pop 	 [189]
00004431 	 A0000003 	 000000BE 	  pop 	 [190]
00004432 	 A0000003 	 000000BF 	  pop 	 [191]
00004433 	 00000013 	 00002D1E 	 call 	 gray
00004434 	 A0000003 	 000000C0 	  pop 	 [192]
00004435 	 A0000003 	 000000C1 	  pop 	 [193]
00004436 	 A0000003 	 000000C2 	  pop 	 [194]
00004437 	 00000013 	 00002D17 	 call 	 black
00004438 	 A0000003 	 000000C3 	  pop 	 [195]
00004439 	 A0000003 	 000000C4 	  pop 	 [196]
00004440 	 A0000003 	 000000C5 	  pop 	 [197]
00004441 	 00000013 	 00002D1E 	 call 	 gray
00004442 	 A0000003 	 000000C6 	  pop 	 [198]
00004443 	 A0000003 	 000000C7 	  pop 	 [199]
00004444 	 A0000003 	 000000C8 	  pop 	 [200]
00004445 	 00000013 	 00002D17 	 call 	 black
00004446 	 A0000003 	 000000C9 	  pop 	 [201]
00004447 	 A0000003 	 000000CA 	  pop 	 [202]
00004448 	 A0000003 	 000000CB 	  pop 	 [203]
00004449 	 00000013 	 00002D1E 	 call 	 gray
00004450 	 A0000003 	 000000CC 	  pop 	 [204]
00004451 	 A0000003 	 000000CD 	  pop 	 [205]
00004452 	 A0000003 	 000000CE 	  pop 	 [206]
00004453 	 00000013 	 00002D17 	 call 	 black
00004454 	 A0000003 	 000000CF 	  pop 	 [207]
00004455 	 A0000003 	 000000D0 	  pop 	 [208]
00004456 	 A0000003 	 000000D1 	  pop 	 [209]
00004457 	 00000013 	 00002D1E 	 call 	 gray
00004458 	 A0000003 	 000000D2 	  pop 	 [210]
00004459 	 A0000003 	 000000D3 	  pop 	 [211]
00004460 	 A0000003 	 000000D4 	  pop 	 [212]
00004461 	 00000013 	 00002D17 	 call 	 black
00004462 	 A0000003 	 000000D5 	  pop 	 [213]
00004463 	 A0000003 	 000000D6 	  pop 	 [214]
00004464 	 A0000003 	 000000D7 	  pop 	 [215]
00004465 	 00000013 	 00002D02 	 call 	 rb8
00004466 	 A0000003 	 000000D8 	  pop 	 [216]
00004467 	 A0000003 	 000000D9 	  pop 	 [217]
00004468 	 A0000003 	 000000DA 	  pop 	 [218]
00004469 	 00000013 	 00002D02 	 call 	 rb8
00004470 	 A0000003 	 000000DB 	  pop 	 [219]
00004471 	 A0000003 	 000000DC 	  pop 	 [220]
00004472 	 A0000003 	 000000DD 	  pop 	 [221]
00004473 	 00000013 	 00002D02 	 call 	 rb8
00004474 	 A0000003 	 000000DE 	  pop 	 [222]
00004475 	 A0000003 	 000000DF 	  pop 	 [223]
00004476 	 A0000003 	 000000E0 	  pop 	 [224]
00004477 	 00000013 	 00002D02 	 call 	 rb8
00004478 	 A0000003 	 000000E1 	  pop 	 [225]
00004479 	 A0000003 	 000000E2 	  pop 	 [226]
00004480 	 A0000003 	 000000E3 	  pop 	 [227]
00004481 	 00000013 	 00002D02 	 call 	 rb8
00004482 	 A0000003 	 000000E4 	  pop 	 [228]
00004483 	 A0000003 	 000000E5 	  pop 	 [229]
00004484 	 A0000003 	 000000E6 	  pop 	 [230]
00004485 	 00000013 	 00002D17 	 call 	 black
00004486 	 A0000003 	 000000E7 	  pop 	 [231]
00004487 	 A0000003 	 000000E8 	  pop 	 [232]
00004488 	 A0000003 	 000000E9 	  pop 	 [233]
00004489 	 00000013 	 00002D1E 	 call 	 gray
00004490 	 A0000003 	 000000EA 	  pop 	 [234]
00004491 	 A0000003 	 000000EB 	  pop 	 [235]
00004492 	 A0000003 	 000000EC 	  pop 	 [236]
00004493 	 00000013 	 00002D17 	 call 	 black
00004494 	 A0000003 	 000000ED 	  pop 	 [237]
00004495 	 A0000003 	 000000EE 	  pop 	 [238]
00004496 	 A0000003 	 000000EF 	  pop 	 [239]
00004497 	 00000013 	 00002D02 	 call 	 rb8
00004498 	 A0000003 	 000000F0 	  pop 	 [240]
00004499 	 A0000003 	 000000F1 	  pop 	 [241]
00004500 	 A0000003 	 000000F2 	  pop 	 [242]
00004501 	 00000013 	 00002D02 	 call 	 rb8
00004502 	 A0000003 	 000000F3 	  pop 	 [243]
00004503 	 A0000003 	 000000F4 	  pop 	 [244]
00004504 	 A0000003 	 000000F5 	  pop 	 [245]
00004505 	 00000013 	 00002D02 	 call 	 rb8
00004506 	 A0000003 	 000000F6 	  pop 	 [246]
00004507 	 A0000003 	 000000F7 	  pop 	 [247]
00004508 	 A0000003 	 000000F8 	  pop 	 [248]
00004509 	 00000013 	 00002D02 	 call 	 rb8
00004510 	 A0000003 	 000000F9 	  pop 	 [249]
00004511 	 A0000003 	 000000FA 	  pop 	 [250]
00004512 	 A0000003 	 000000FB 	  pop 	 [251]
00004513 	 00000013 	 00002D02 	 call 	 rb8
00004514 	 A0000003 	 000000FC 	  pop 	 [252]
00004515 	 A0000003 	 000000FD 	  pop 	 [253]
00004516 	 A0000003 	 000000FE 	  pop 	 [254]
00004517 	 00000013 	 00002D02 	 call 	 rb8
00004518 	 A0000003 	 000000FF 	  pop 	 [255]
00004519 	 A0000003 	 00000100 	  pop 	 [256]
00004520 	 A0000003 	 00000101 	  pop 	 [257]
00004521 	 00000013 	 00002D02 	 call 	 rb8
00004522 	 A0000003 	 00000102 	  pop 	 [258]
00004523 	 A0000003 	 00000103 	  pop 	 [259]
00004524 	 A0000003 	 00000104 	  pop 	 [260]
00004525 	 00000013 	 00002D02 	 call 	 rb8
00004526 	 A0000003 	 00000105 	  pop 	 [261]
00004527 	 A0000003 	 00000106 	  pop 	 [262]
00004528 	 A0000003 	 00000107 	  pop 	 [263]
00004529 	 00000013 	 00002D02 	 call 	 rb8
00004530 	 A0000003 	 00000108 	  pop 	 [264]
00004531 	 A0000003 	 00000109 	  pop 	 [265]
00004532 	 A0000003 	 0000010A 	  pop 	 [266]
00004533 	 00000013 	 00002D17 	 call 	 black
00004534 	 A0000003 	 0000010B 	  pop 	 [267]
00004535 	 A0000003 	 0000010C 	  pop 	 [268]
00004536 	 A0000003 	 0000010D 	  pop 	 [269]
00004537 	 00000013 	 00002D1E 	 call 	 gray
00004538 	 A0000003 	 0000010E 	  pop 	 [270]
00004539 	 A0000003 	 0000010F 	  pop 	 [271]
00004540 	 A0000003 	 00000110 	  pop 	 [272]
00004541 	 00000013 	 00002D17 	 call 	 black
00004542 	 A0000003 	 00000111 	  pop 	 [273]
00004543 	 A0000003 	 00000112 	  pop 	 [274]
00004544 	 A0000003 	 00000113 	  pop 	 [275]
00004545 	 00000013 	 00002D1E 	 call 	 gray
00004546 	 A0000003 	 00000114 	  pop 	 [276]
00004547 	 A0000003 	 00000115 	  pop 	 [277]
00004548 	 A0000003 	 00000116 	  pop 	 [278]
00004549 	 00000013 	 00002D17 	 call 	 black
00004550 	 A0000003 	 00000117 	  pop 	 [279]
00004551 	 A0000003 	 00000118 	  pop 	 [280]
00004552 	 A0000003 	 00000119 	  pop 	 [281]
00004553 	 00000013 	 00002D1E 	 call 	 gray
00004554 	 A0000003 	 0000011A 	  pop 	 [282]
00004555 	 A0000003 	 0000011B 	  pop 	 [283]
00004556 	 A0000003 	 0000011C 	  pop 	 [284]
00004557 	 00000013 	 00002D17 	 call 	 black
00004558 	 A0000003 	 0000011D 	  pop 	 [285]
00004559 	 A0000003 	 0000011E 	  pop 	 [286]
00004560 	 A0000003 	 0000011F 	  pop 	 [287]
00004561 	 00000013 	 00002D02 	 call 	 rb8
00004562 	 A0000003 	 00000138 	  pop 	 [312]
00004563 	 A0000003 	 00000139 	  pop 	 [313]
00004564 	 A0000003 	 0000013A 	  pop 	 [314]
00004565 	 00000013 	 00002D02 	 call 	 rb8
00004566 	 A0000003 	 00000147 	  pop 	 [327]
00004567 	 A0000003 	 00000148 	  pop 	 [328]
00004568 	 A0000003 	 00000149 	  pop 	 [329]
00004569 	 00000013 	 00002D02 	 call 	 rb8
00004570 	 A0000003 	 0000015C 	  pop 	 [348]
00004571 	 A0000003 	 0000015D 	  pop 	 [349]
00004572 	 A0000003 	 0000015E 	  pop 	 [350]
00004573 	 00000013 	 00002D02 	 call 	 rb8
00004574 	 A0000003 	 000001BC 	  pop 	 [444]
00004575 	 A0000003 	 000001BD 	  pop 	 [445]
00004576 	 A0000003 	 000001BE 	  pop 	 [446]
00004577 	 00000013 	 00002D02 	 call 	 rb8
00004578 	 A0000003 	 0000021C 	  pop 	 [540]
00004579 	 A0000003 	 0000021D 	  pop 	 [541]
00004580 	 A0000003 	 0000021E 	  pop 	 [542]
00004581 	 00000013 	 00002D02 	 call 	 rb8
00004582 	 A0000003 	 0000027C 	  pop 	 [636]
00004583 	 A0000003 	 0000027D 	  pop 	 [637]
00004584 	 A0000003 	 0000027E 	  pop 	 [638]
00004585 	 00000013 	 00002D02 	 call 	 rb8
00004586 	 A0000003 	 000002DC 	  pop 	 [732]
00004587 	 A0000003 	 000002DD 	  pop 	 [733]
00004588 	 A0000003 	 000002DE 	  pop 	 [734]
00004589 	 00000013 	 00002D02 	 call 	 rb8
00004590 	 A0000003 	 0000033C 	  pop 	 [828]
00004591 	 A0000003 	 0000033D 	  pop 	 [829]
00004592 	 A0000003 	 0000033E 	  pop 	 [830]
00004593 	 00000013 	 00002D02 	 call 	 rb8
00004594 	 A0000003 	 0000039C 	  pop 	 [924]
00004595 	 A0000003 	 0000039D 	  pop 	 [925]
00004596 	 A0000003 	 0000039E 	  pop 	 [926]
00004597 	 00000013 	 00002D02 	 call 	 rb8
00004598 	 A0000003 	 000003FC 	  pop 	 [1020]
00004599 	 A0000003 	 000003FD 	  pop 	 [1021]
00004600 	 A0000003 	 000003FE 	  pop 	 [1022]
00004601 	 00000013 	 00002D02 	 call 	 rb8
00004602 	 A0000003 	 0000045C 	  pop 	 [1116]
00004603 	 A0000003 	 0000045D 	  pop 	 [1117]
00004604 	 A0000003 	 0000045E 	  pop 	 [1118]
00004605 	 00000013 	 00002D02 	 call 	 rb8
00004606 	 A0000003 	 000004BC 	  pop 	 [1212]
00004607 	 A0000003 	 000004BD 	  pop 	 [1213]
00004608 	 A0000003 	 000004BE 	  pop 	 [1214]
00004609 	 00000013 	 00002D02 	 call 	 rb8
00004610 	 A0000003 	 0000051C 	  pop 	 [1308]
00004611 	 A0000003 	 0000051D 	  pop 	 [1309]
00004612 	 A0000003 	 0000051E 	  pop 	 [1310]
00004613 	 00000013 	 00002D02 	 call 	 rb8
00004614 	 A0000003 	 0000057C 	  pop 	 [1404]
00004615 	 A0000003 	 0000057D 	  pop 	 [1405]
00004616 	 A0000003 	 0000057E 	  pop 	 [1406]
00004617 	 00000013 	 00002D02 	 call 	 rb8
00004618 	 A0000003 	 000005DC 	  pop 	 [1500]
00004619 	 A0000003 	 000005DD 	  pop 	 [1501]
00004620 	 A0000003 	 000005DE 	  pop 	 [1502]
00004621 	 00000013 	 00002D02 	 call 	 rb8
00004622 	 A0000003 	 00000198 	  pop 	 [408]
00004623 	 A0000003 	 00000199 	  pop 	 [409]
00004624 	 A0000003 	 0000019A 	  pop 	 [410]
00004625 	 00000013 	 00002D02 	 call 	 rb8
00004626 	 A0000003 	 000001A7 	  pop 	 [423]
00004627 	 A0000003 	 000001A8 	  pop 	 [424]
00004628 	 A0000003 	 000001A9 	  pop 	 [425]
00004629 	 00000013 	 00002D02 	 call 	 rb8
00004630 	 A0000003 	 000001F8 	  pop 	 [504]
00004631 	 A0000003 	 000001F9 	  pop 	 [505]
00004632 	 A0000003 	 000001FA 	  pop 	 [506]
00004633 	 00000013 	 00002D02 	 call 	 rb8
00004634 	 A0000003 	 00000207 	  pop 	 [519]
00004635 	 A0000003 	 00000208 	  pop 	 [520]
00004636 	 A0000003 	 00000209 	  pop 	 [521]
00004637 	 00000013 	 00002D02 	 call 	 rb8
00004638 	 A0000003 	 00000258 	  pop 	 [600]
00004639 	 A0000003 	 00000259 	  pop 	 [601]
00004640 	 A0000003 	 0000025A 	  pop 	 [602]
00004641 	 00000013 	 00002D02 	 call 	 rb8
00004642 	 A0000003 	 00000267 	  pop 	 [615]
00004643 	 A0000003 	 00000268 	  pop 	 [616]
00004644 	 A0000003 	 00000269 	  pop 	 [617]
00004645 	 00000013 	 00002D02 	 call 	 rb8
00004646 	 A0000003 	 000002B8 	  pop 	 [696]
00004647 	 A0000003 	 000002B9 	  pop 	 [697]
00004648 	 A0000003 	 000002BA 	  pop 	 [698]
00004649 	 00000013 	 00002D02 	 call 	 rb8
00004650 	 A0000003 	 000002BB 	  pop 	 [699]
00004651 	 A0000003 	 000002BC 	  pop 	 [700]
00004652 	 A0000003 	 000002BD 	  pop 	 [701]
00004653 	 00000013 	 00002D02 	 call 	 rb8
00004654 	 A0000003 	 000002BE 	  pop 	 [702]
00004655 	 A0000003 	 000002BF 	  pop 	 [703]
00004656 	 A0000003 	 000002C0 	  pop 	 [704]
00004657 	 00000013 	 00002D02 	 call 	 rb8
00004658 	 A0000003 	 000002C1 	  pop 	 [705]
00004659 	 A0000003 	 000002C2 	  pop 	 [706]
00004660 	 A0000003 	 000002C3 	  pop 	 [707]
00004661 	 00000013 	 00002D02 	 call 	 rb8
00004662 	 A0000003 	 000002C4 	  pop 	 [708]
00004663 	 A0000003 	 000002C5 	  pop 	 [709]
00004664 	 A0000003 	 000002C6 	  pop 	 [710]
00004665 	 00000013 	 00002D02 	 call 	 rb8
00004666 	 A0000003 	 00000318 	  pop 	 [792]
00004667 	 A0000003 	 00000319 	  pop 	 [793]
00004668 	 A0000003 	 0000031A 	  pop 	 [794]
00004669 	 00000013 	 00002D02 	 call 	 rb8
00004670 	 A0000003 	 00000378 	  pop 	 [888]
00004671 	 A0000003 	 00000379 	  pop 	 [889]
00004672 	 A0000003 	 0000037A 	  pop 	 [890]
00004673 	 00000013 	 00002D02 	 call 	 rb8
00004674 	 A0000003 	 000003D8 	  pop 	 [984]
00004675 	 A0000003 	 000003D9 	  pop 	 [985]
00004676 	 A0000003 	 000003DA 	  pop 	 [986]
00004677 	 00000013 	 00002D02 	 call 	 rb8
00004678 	 A0000003 	 00000438 	  pop 	 [1080]
00004679 	 A0000003 	 00000439 	  pop 	 [1081]
00004680 	 A0000003 	 0000043A 	  pop 	 [1082]
00004681 	 00000013 	 00002D02 	 call 	 rb8
00004682 	 A0000003 	 00000498 	  pop 	 [1176]
00004683 	 A0000003 	 00000499 	  pop 	 [1177]
00004684 	 A0000003 	 0000049A 	  pop 	 [1178]
00004685 	 00000013 	 00002D02 	 call 	 rb8
00004686 	 A0000003 	 000004F8 	  pop 	 [1272]
00004687 	 A0000003 	 000004F9 	  pop 	 [1273]
00004688 	 A0000003 	 000004FA 	  pop 	 [1274]
00004689 	 00000013 	 00002D02 	 call 	 rb8
00004690 	 A0000003 	 00000558 	  pop 	 [1368]
00004691 	 A0000003 	 00000559 	  pop 	 [1369]
00004692 	 A0000003 	 0000055A 	  pop 	 [1370]
00004693 	 00000013 	 00002D02 	 call 	 rb8
00004694 	 A0000003 	 000005B8 	  pop 	 [1464]
00004695 	 A0000003 	 000005B9 	  pop 	 [1465]
00004696 	 A0000003 	 000005BA 	  pop 	 [1466]
00004697 	 00000016 	          	 scan
00004698 	 00000017 	          	 draw
00004699 	 00000013 	 00002D1E 	 call 	 gray
00004700 	 A0000003 	 00000000 	  pop 	 [0]
00004701 	 A0000003 	 00000001 	  pop 	 [1]
00004702 	 A0000003 	 00000002 	  pop 	 [2]
00004703 	 00000013 	 00002D17 	 call 	 black
00004704 	 A0000003 	 00000003 	  pop 	 [3]
00004705 	 A0000003 	 00000004 	  pop 	 [4]
00004706 	 A0000003 	 00000005 	  pop 	 [5]
00004707 	 00000013 	 00002D1E 	 call 	 gray
00004708 	 A0000003 	 00000006 	  pop 	 [6]
00004709 	 A0000003 	 00000007 	  pop 	 [7]
00004710 	 A0000003 	 00000008 	  pop 	 [8]
00004711 	 00000013 	 00002D17 	 call 	 black
00004712 	 A0000003 	 00000009 	  pop 	 [9]
00004713 	 A0000003 	 0000000A 	  pop 	 [10]
00004714 	 A0000003 	 0000000B 	  pop 	 [11]
00004715 	 00000013 	 00002D1E 	 call 	 gray
00004716 	 A0000003 	 0000000C 	  pop 	 [12]
00004717 	 A0000003 	 0000000D 	  pop 	 [13]
00004718 	 A0000003 	 0000000E 	  pop 	 [14]
00004719 	 00000013 	 00002D17 	 call 	 black
00004720 	 A0000003 	 0000000F 	  pop 	 [15]
00004721 	 A0000003 	 00000010 	  pop 	 [16]
00004722 	 A0000003 	 00000011 	  pop 	 [17]
00004723 	 00000013 	 00002D1E 	 call 	 gray
00004724 	 A0000003 	 00000012 	  pop 	 [18]
00004725 	 A0000003 	 00000013 	  pop 	 [19]
00004726 	 A0000003 	 00000014 	  pop 	 [20]
00004727 	 00000013 	 00002D17 	 call 	 black
00004728 	 A0000003 	 00000015 	  pop 	 [21]
00004729 	 A0000003 	 00000016 	  pop 	 [22]
00004730 	 A0000003 	 00000017 	  pop 	 [23]
00004731 	 00000013 	 00002D1E 	 call 	 gray
00004732 	 A0000003 	 00000018 	  pop 	 [24]
00004733 	 A0000003 	 00000019 	  pop 	 [25]
00004734 	 A0000003 	 0000001A 	  pop 	 [26]
00004735 	 00000013 	 00002D17 	 call 	 black
00004736 	 A0000003 	 0000001B 	  pop 	 [27]
00004737 	 A0000003 	 0000001C 	  pop 	 [28]
00004738 	 A0000003 	 0000001D 	  pop 	 [29]
00004739 	 00000013 	 00002D1E 	 call 	 gray
00004740 	 A0000003 	 0000001E 	  pop 	 [30]
00004741 	 A0000003 	 0000001F 	  pop 	 [31]
00004742 	 A0000003 	 00000020 	  pop 	 [32]
00004743 	 00000013 	 00002D17 	 call 	 black
00004744 	 A0000003 	 00000021 	  pop 	 [33]
00004745 	 A0000003 	 00000022 	  pop 	 [34]
00004746 	 A0000003 	 00000023 	  pop 	 [35]
00004747 	 00000013 	 00002D1E 	 call 	 gray
00004748 	 A0000003 	 00000024 	  pop 	 [36]
00004749 	 A0000003 	 00000025 	  pop 	 [37]
00004750 	 A0000003 	 00000026 	  pop 	 [38]
00004751 	 00000013 	 00002D17 	 call 	 black
00004752 	 A0000003 	 00000027 	  pop 	 [39]
00004753 	 A0000003 	 00000028 	  pop 	 [40]
00004754 	 A0000003 	 00000029 	  pop 	 [41]
00004755 	 00000013 	 00002D1E 	 call 	 gray
00004756 	 A0000003 	 0000002A 	  pop 	 [42]
00004757 	 A0000003 	 0000002B 	  pop 	 [43]
00004758 	 A0000003 	 0000002C 	  pop 	 [44]
00004759 	 00000013 	 00002D17 	 call 	 black
00004760 	 A0000003 	 0000002D 	  pop 	 [45]
00004761 	 A0000003 	 0000002E 	  pop 	 [46]
00004762 	 A0000003 	 0000002F 	  pop 	 [47]
00004763 	 00000013 	 00002D1E 	 call 	 gray
00004764 	 A0000003 	 00000030 	  pop 	 [48]
00004765 	 A0000003 	 00000031 	  pop 	 [49]
00004766 	 A0000003 	 00000032 	  pop 	 [50]
00004767 	 00000013 	 00002D17 	 call 	 black
00004768 	 A0000003 	 00000033 	  pop 	 [51]
00004769 	 A0000003 	 00000034 	  pop 	 [52]
00004770 	 A0000003 	 00000035 	  pop 	 [53]
00004771 	 00000013 	 00002D1E 	 call 	 gray
00004772 	 A0000003 	 00000036 	  pop 	 [54]
00004773 	 A0000003 	 00000037 	  pop 	 [55]
00004774 	 A0000003 	 00000038 	  pop 	 [56]
00004775 	 00000013 	 00002D17 	 call 	 black
00004776 	 A0000003 	 00000039 	  pop 	 [57]
00004777 	 A0000003 	 0000003A 	  pop 	 [58]
00004778 	 A0000003 	 0000003B 	  pop 	 [59]
00004779 	 00000013 	 00002D1E 	 call 	 gray
00004780 	 A0000003 	 0000003C 	  pop 	 [60]
00004781 	 A0000003 	 0000003D 	  pop 	 [61]
00004782 	 A0000003 	 0000003E 	  pop 	 [62]
00004783 	 00000013 	 00002D17 	 call 	 black
00004784 	 A0000003 	 0000003F 	  pop 	 [63]
00004785 	 A0000003 	 00000040 	  pop 	 [64]
00004786 	 A0000003 	 00000041 	  pop 	 [65]
00004787 	 00000013 	 00002D1E 	 call 	 gray
00004788 	 A0000003 	 00000042 	  pop 	 [66]
00004789 	 A0000003 	 00000043 	  pop 	 [67]
00004790 	 A0000003 	 00000044 	  pop 	 [68]
00004791 	 00000013 	 00002D17 	 call 	 black
00004792 	 A0000003 	 00000045 	  pop 	 [69]
00004793 	 A0000003 	 00000046 	  pop 	 [70]
00004794 	 A0000003 	 00000047 	  pop 	 [71]
00004795 	 00000013 	 00002D1E 	 call 	 gray
00004796 	 A0000003 	 00000048 	  pop 	 [72]
00004797 	 A0000003 	 00000049 	  pop 	 [73]
00004798 	 A0000003 	 0000004A 	  pop 	 [74]
00004799 	 00000013 	 00002D17 	 call 	 black
00004800 	 A0000003 	 0000004B 	  pop 	 [75]
00004801 	 A0000003 	 0000004C 	  pop 	 [76]
00004802 	 A0000003 	 0000004D 	  pop 	 [77]
00004803 	 00000013 	 00002D1E 	 call 	 gray
00004804 	 A0000003 	 0000004E 	  pop 	 [78]
00004805 	 A0000003 	 0000004F 	  pop 	 [79]
00004806 	 A0000003 	 00000050 	  pop 	 [80]
00004807 	 00000013 	 00002D17 	 call 	 black
00004808 	 A0000003 	 00000051 	  pop 	 [81]
00004809 	 A0000003 	 00000052 	  pop 	 [82]
00004810 	 A0000003 	 00000053 	  pop 	 [83]
00004811 	 00000013 	 00002D1E 	 call 	 gray
00004812 	 A0000003 	 00000054 	  pop 	 [84]
00004813 	 A0000003 	 00000055 	  pop 	 [85]
00004814 	 A0000003 	 00000056 	  pop 	 [86]
00004815 	 00000013 	 00002D17 	 call 	 black
00004816 	 A0000003 	 00000057 	  pop 	 [87]
00004817 	 A0000003 	 00000058 	  pop 	 [88]
00004818 	 A0000003 	 00000059 	  pop 	 [89]
00004819 	 00000013 	 00002D1E 	 call 	 gray
00004820 	 A0000003 	 0000005A 	  pop 	 [90]
00004821 	 A0000003 	 0000005B 	  pop 	 [91]
00004822 	 A0000003 	 0000005C 	  pop 	 [92]
00004823 	 00000013 	 00002D17 	 call 	 black
00004824 	 A0000003 	 0000005D 	  pop 	 [93]
00004825 	 A0000003 	 0000005E 	  pop 	 [94]
00004826 	 A0000003 	 0000005F 	  pop 	 [95]
00004827 	 00000013 	 00002D1E 	 call 	 gray
00004828 	 A0000003 	 00000060 	  pop 	 [96]
00004829 	 A0000003 	 00000061 	  pop 	 [97]
00004830 	 A0000003 	 00000062 	  pop 	 [98]
00004831 	 00000013 	 00002D17 	 call 	 black
00004832 	 A0000003 	 00000063 	  pop 	 [99]
00004833 	 A0000003 	 00000064 	  pop 	 [100]
00004834 	 A0000003 	 00000065 	  pop 	 [101]
00004835 	 00000013 	 00002D1E 	 call 	 gray
00004836 	 A0000003 	 00000066 	  pop 	 [102]
00004837 	 A0000003 	 00000067 	  pop 	 [103]
00004838 	 A0000003 	 00000068 	  pop 	 [104]
00004839 	 00000013 	 00002D17 	 call 	 black
00004840 	 A0000003 	 00000069 	  pop 	 [105]
00004841 	 A0000003 	 0000006A 	  pop 	 [106]
00004842 	 A0000003 	 0000006B 	  pop 	 [107]
00004843 	 00000013 	 00002D1E 	 call 	 gray
00004844 	 A0000003 	 0000006C 	  pop 	 [108]
00004845 	 A0000003 	 0000006D 	  pop 	 [109]
00004846 	 A0000003 	 0000006E 	  pop 	 [110]
00004847 	 00000013 	 00002D17 	 call 	 black
00004848 	 A0000003 	 0000006F 	  pop 	 [111]
00004849 	 A0000003 	 00000070 	  pop 	 [112]
00004850 	 A0000003 	 00000071 	  pop 	 [113]
00004851 	 00000013 	 00002D1E 	 call 	 gray
00004852 	 A0000003 	 00000072 	  pop 	 [114]
00004853 	 A0000003 	 00000073 	  pop 	 [115]
00004854 	 A0000003 	 00000074 	  pop 	 [116]
00004855 	 00000013 	 00002D17 	 call 	 black
00004856 	 A0000003 	 00000075 	  pop 	 [117]
00004857 	 A0000003 	 00000076 	  pop 	 [118]
00004858 	 A0000003 	 00000077 	  pop 	 [119]
00004859 	 00000013 	 00002D1E 	 call 	 gray
00004860 	 A0000003 	 00000078 	  pop 	 [120]
00004861 	 A0000003 	 00000079 	  pop 	 [121]
00004862 	 A0000003 	 0000007A 	  pop 	 [122]
00004863 	 00000013 	 00002D17 	 call 	 black
00004864 	 A0000003 	 0000007B 	  pop 	 [123]
00004865 	 A0000003 	 0000007C 	  pop 	 [124]
00004866 	 A0000003 	 0000007D 	  pop 	 [125]
00004867 	 00000013 	 00002D1E 	 call 	 gray
00004868 	 A0000003 	 0000007E 	  pop 	 [126]
00004869 	 A0000003 	 0000007F 	  pop 	 [127]
00004870 	 A0000003 	 00000080 	  pop 	 [128]
00004871 	 00000013 	 00002D17 	 call 	 black
00004872 	 A0000003 	 00000081 	  pop 	 [129]
00004873 	 A0000003 	 00000082 	  pop 	 [130]
00004874 	 A0000003 	 00000083 	  pop 	 [131]
00004875 	 00000013 	 00002D1E 	 call 	 gray
00004876 	 A0000003 	 00000084 	  pop 	 [132]
00004877 	 A0000003 	 00000085 	  pop 	 [133]
00004878 	 A0000003 	 00000086 	  pop 	 [134]
00004879 	 00000013 	 00002D17 	 call 	 black
00004880 	 A0000003 	 00000087 	  pop 	 [135]
00004881 	 A0000003 	 00000088 	  pop 	 [136]
00004882 	 A0000003 	 00000089 	  pop 	 [137]
00004883 	 00000013 	 00002D1E 	 call 	 gray
00004884 	 A0000003 	 0000008A 	  pop 	 [138]
00004885 	 A0000003 	 0000008B 	  pop 	 [139]
00004886 	 A0000003 	 0000008C 	  pop 	 [140]
00004887 	 00000013 	 00002D17 	 call 	 black
00004888 	 A0000003 	 0000008D 	  pop 	 [141]
00004889 	 A0000003 	 0000008E 	  pop 	 [142]
00004890 	 A0000003 	 0000008F 	  pop 	 [143]
00004891 	 00000013 	 00002D1E 	 call 	 gray
00004892 	 A0000003 	 00000090 	  pop 	 [144]
00004893 	 A0000003 	 00000091 	  pop 	 [145]
00004894 	 A0000003 	 00000092 	  pop 	 [146]
00004895 	 00000013 	 00002D17 	 call 	 black
00004896 	 A0000003 	 00000093 	  pop 	 [147]
00004897 	 A0000003 	 00000094 	  pop 	 [148]
00004898 	 A0000003 	 00000095 	  pop 	 [149]
00004899 	 00000013 	 00002D1E 	 call 	 gray
00004900 	 A0000003 	 00000096 	  pop 	 [150]
00004901 	 A0000003 	 00000097 	  pop 	 [151]
00004902 	 A0000003 	 00000098 	  pop 	 [152]
00004903 	 00000013 	 00002D17 	 call 	 black
00004904 	 A0000003 	 00000099 	  pop 	 [153]
00004905 	 A0000003 	 0000009A 	  pop 	 [154]
00004906 	 A0000003 	 0000009B 	  pop 	 [155]
00004907 	 00000013 	 00002D1E 	 call 	 gray
00004908 	 A0000003 	 0000009C 	  pop 	 [156]
00004909 	 A0000003 	 0000009D 	  pop 	 [157]
00004910 	 A0000003 	 0000009E 	  pop 	 [158]
00004911 	 00000013 	 00002D17 	 call 	 black
00004912 	 A0000003 	 0000009F 	  pop 	 [159]
00004913 	 A0000003 	 000000A0 	  pop 	 [160]
00004914 	 A0000003 	 000000A1 	  pop 	 [161]
00004915 	 00000013 	 00002D1E 	 call 	 gray
00004916 	 A0000003 	 000000A2 	  pop 	 [162]
00004917 	 A0000003 	 000000A3 	  pop 	 [163]
00004918 	 A0000003 	 000000A4 	  pop 	 [164]
00004919 	 00000013 	 00002D17 	 call 	 black
00004920 	 A0000003 	 000000A5 	  pop 	 [165]
00004921 	 A0000003 	 000000A6 	  pop 	 [166]
00004922 	 A0000003 	 000000A7 	  pop 	 [167]
00004923 	 00000013 	 00002D1E 	 call 	 gray
00004924 	 A0000003 	 000000A8 	  pop 	 [168]
00004925 	 A0000003 	 000000A9 	  pop 	 [169]
00004926 	 A0000003 	 000000AA 	  pop 	 [170]
00004927 	 00000013 	 00002D17 	 call 	 black
00004928 	 A0000003 	 000000AB 	  pop 	 [171]
00004929 	 A0000003 	 000000AC 	  pop 	 [172]
00004930 	 A0000003 	 000000AD 	  pop 	 [173]
00004931 	 00000013 	 00002D1E 	 call 	 gray
00004932 	 A0000003 	 000000AE 	  pop 	 [174]
00004933 	 A0000003 	 000000AF 	  pop 	 [175]
00004934 	 A0000003 	 000000B0 	  pop 	 [176]
00004935 	 00000013 	 00002D17 	 call 	 black
00004936 	 A0000003 	 000000B1 	  pop 	 [177]
00004937 	 A0000003 	 000000B2 	  pop 	 [178]
00004938 	 A0000003 	 000000B3 	  pop 	 [179]
00004939 	 00000013 	 00002D1E 	 call 	 gray
00004940 	 A0000003 	 000000B4 	  pop 	 [180]
00004941 	 A0000003 	 000000B5 	  pop 	 [181]
00004942 	 A0000003 	 000000B6 	  pop 	 [182]
00004943 	 00000013 	 00002D17 	 call 	 black
00004944 	 A0000003 	 000000B7 	  pop 	 [183]
00004945 	 A0000003 	 000000B8 	  pop 	 [184]
00004946 	 A0000003 	 000000B9 	  pop 	 [185]
00004947 	 00000013 	 00002D1E 	 call 	 gray
00004948 	 A0000003 	 000000BA 	  pop 	 [186]
00004949 	 A0000003 	 000000BB 	  pop 	 [187]
00004950 	 A0000003 	 000000BC 	  pop 	 [188]
00004951 	 00000013 	 00002D17 	 call 	 black
00004952 	 A0000003 	 000000BD 	  pop 	 [189]
00004953 	 A0000003 	 000000BE 	  pop 	 [190]
00004954 	 A0000003 	 000000BF 	  pop 	 [191]
00004955 	 00000013 	 00002D1E 	 call 	 gray
00004956 	 A0000003 	 000000C0 	  pop 	 [192]
00004957 	 A0000003 	 000000C1 	  pop 	 [193]
00004958 	 A0000003 	 000000C2 	  pop 	 [194]
00004959 	 00000013 	 00002D17 	 call 	 black
00004960 	 A0000003 	 000000C3 	  pop 	 [195]
00004961 	 A0000003 	 000000C4 	  pop 	 [196]
00004962 	 A0000003 	 000000C5 	  pop 	 [197]
00004963 	 00000013 	 00002D1E 	 call 	 gray
00004964 	 A0000003 	 000000C6 	  pop 	 [198]
00004965 	 A0000003 	 000000C7 	  pop 	 [199]
00004966 	 A0000003 	 000000C8 	  pop 	 [200]
00004967 	 00000013 	 00002D17 	 call 	 black
00004968 	 A0000003 	 000000C9 	  pop 	 [201]
00004969 	 A0000003 	 000000CA 	  pop 	 [202]
00004970 	 A0000003 	 000000CB 	  pop 	 [203]
00004971 	 00000013 	 00002D1E 	 call 	 gray
00004972 	 A0000003 	 000000CC 	  pop 	 [204]
00004973 	 A0000003 	 000000CD 	  pop 	 [205]
00004974 	 A0000003 	 000000CE 	  pop 	 [206]
00004975 	 00000013 	 00002D17 	 call 	 black
00004976 	 A0000003 	 000000CF 	  pop 	 [207]
00004977 	 A0000003 	 000000D0 	  pop 	 [208]
00004978 	 A0000003 	 000000D1 	  pop 	 [209]
00004979 	 00000013 	 00002D1E 	 call 	 gray
00004980 	 A0000003 	 000000D2 	  pop 	 [210]
00004981 	 A0000003 	 000000D3 	  pop 	 [211]
00004982 	 A0000003 	 000000D4 	  pop 	 [212]
00004983 	 00000013 	 00002D17 	 call 	 black
00004984 	 A0000003 	 000000D5 	  pop 	 [213]
00004985 	 A0000003 	 000000D6 	  pop 	 [214]
00004986 	 A0000003 	 000000D7 	  pop 	 [215]
00004987 	 00000013 	 00002D09 	 call 	 rb9
00004988 	 A0000003 	 000000D8 	  pop 	 [216]
00004989 	 A0000003 	 000000D9 	  pop 	 [217]
00004990 	 A0000003 	 000000DA 	  pop 	 [218]
00004991 	 00000013 	 00002D09 	 call 	 rb9
00004992 	 A0000003 	 000000DB 	  pop 	 [219]
00004993 	 A0000003 	 000000DC 	  pop 	 [220]
00004994 	 A0000003 	 000000DD 	  pop 	 [221]
00004995 	 00000013 	 00002D09 	 call 	 rb9
00004996 	 A0000003 	 000000DE 	  pop 	 [222]
00004997 	 A0000003 	 000000DF 	  pop 	 [223]
00004998 	 A0000003 	 000000E0 	  pop 	 [224]
00004999 	 00000013 	 00002D09 	 call 	 rb9
00005000 	 A0000003 	 000000E1 	  pop 	 [225]
00005001 	 A0000003 	 000000E2 	  pop 	 [226]
00005002 	 A0000003 	 000000E3 	  pop 	 [227]
00005003 	 00000013 	 00002D09 	 call 	 rb9
00005004 	 A0000003 	 000000E4 	  pop 	 [228]
00005005 	 A0000003 	 000000E5 	  pop 	 [229]
00005006 	 A0000003 	 000000E6 	  pop 	 [230]
00005007 	 00000013 	 00002D17 	 call 	 black
00005008 	 A0000003 	 000000E7 	  pop 	 [231]
00005009 	 A0000003 	 000000E8 	  pop 	 [232]
00005010 	 A0000003 	 000000E9 	  pop 	 [233]
00005011 	 00000013 	 00002D1E 	 call 	 gray
00005012 	 A0000003 	 000000EA 	  pop 	 [234]
00005013 	 A0000003 	 000000EB 	  pop 	 [235]
00005014 	 A0000003 	 000000EC 	  pop 	 [236]
00005015 	 00000013 	 00002D17 	 call 	 black
00005016 	 A0000003 	 000000ED 	  pop 	 [237]
00005017 	 A0000003 	 000000EE 	  pop 	 [238]
00005018 	 A0000003 	 000000EF 	  pop 	 [239]
00005019 	 00000013 	 00002D09 	 call 	 rb9
00005020 	 A0000003 	 000000F0 	  pop 	 [240]
00005021 	 A0000003 	 000000F1 	  pop 	 [241]
00005022 	 A0000003 	 000000F2 	  pop 	 [242]
00005023 	 00000013 	 00002D09 	 call 	 rb9
00005024 	 A0000003 	 000000F3 	  pop 	 [243]
00005025 	 A0000003 	 000000F4 	  pop 	 [244]
00005026 	 A0000003 	 000000F5 	  pop 	 [245]
00005027 	 00000013 	 00002D09 	 call 	 rb9
00005028 	 A0000003 	 000000F6 	  pop 	 [246]
00005029 	 A0000003 	 000000F7 	  pop 	 [247]
00005030 	 A0000003 	 000000F8 	  pop 	 [248]
00005031 	 00000013 	 00002D09 	 call 	 rb9
00005032 	 A0000003 	 000000F9 	  pop 	 [249]
00005033 	 A0000003 	 000000FA 	  pop 	 [250]
00005034 	 A0000003 	 000000FB 	  pop 	 [251]
00005035 	 00000013 	 00002D09 	 call 	 rb9
00005036 	 A0000003 	 000000FC 	  pop 	 [252]
00005037 	 A0000003 	 000000FD 	  pop 	 [253]
00005038 	 A0000003 	 000000FE 	  pop 	 [254]
00005039 	 00000013 	 00002D09 	 call 	 rb9
00005040 	 A0000003 	 000000FF 	  pop 	 [255]
00005041 	 A0000003 	 00000100 	  pop 	 [256]
00005042 	 A0000003 	 00000101 	  pop 	 [257]
00005043 	 00000013 	 00002D09 	 call 	 rb9
00005044 	 A0000003 	 00000102 	  pop 	 [258]
00005045 	 A0000003 	 00000103 	  pop 	 [259]
00005046 	 A0000003 	 00000104 	  pop 	 [260]
00005047 	 00000013 	 00002D09 	 call 	 rb9
00005048 	 A0000003 	 00000105 	  pop 	 [261]
00005049 	 A0000003 	 00000106 	  pop 	 [262]
00005050 	 A0000003 	 00000107 	  pop 	 [263]
00005051 	 00000013 	 00002D09 	 call 	 rb9
00005052 	 A0000003 	 00000108 	  pop 	 [264]
00005053 	 A0000003 	 00000109 	  pop 	 [265]
00005054 	 A0000003 	 0000010A 	  pop 	 [266]
00005055 	 00000013 	 00002D17 	 call 	 black
00005056 	 A0000003 	 0000010B 	  pop 	 [267]
00005057 	 A0000003 	 0000010C 	  pop 	 [268]
00005058 	 A0000003 	 0000010D 	  pop 	 [269]
00005059 	 00000013 	 00002D1E 	 call 	 gray
00005060 	 A0000003 	 0000010E 	  pop 	 [270]
00005061 	 A0000003 	 0000010F 	  pop 	 [271]
00005062 	 A0000003 	 00000110 	  pop 	 [272]
00005063 	 00000013 	 00002D17 	 call 	 black
00005064 	 A0000003 	 00000111 	  pop 	 [273]
00005065 	 A0000003 	 00000112 	  pop 	 [274]
00005066 	 A0000003 	 00000113 	  pop 	 [275]
00005067 	 00000013 	 00002D1E 	 call 	 gray
00005068 	 A0000003 	 00000114 	  pop 	 [276]
00005069 	 A0000003 	 00000115 	  pop 	 [277]
00005070 	 A0000003 	 00000116 	  pop 	 [278]
00005071 	 00000013 	 00002D17 	 call 	 black
00005072 	 A0000003 	 00000117 	  pop 	 [279]
00005073 	 A0000003 	 00000118 	  pop 	 [280]
00005074 	 A0000003 	 00000119 	  pop 	 [281]
00005075 	 00000013 	 00002D1E 	 call 	 gray
00005076 	 A0000003 	 0000011A 	  pop 	 [282]
00005077 	 A0000003 	 0000011B 	  pop 	 [283]
00005078 	 A0000003 	 0000011C 	  pop 	 [284]
00005079 	 00000013 	 00002D17 	 call 	 black
00005080 	 A0000003 	 0000011D 	  pop 	 [285]
00005081 	 A0000003 	 0000011E 	  pop 	 [286]
00005082 	 A0000003 	 0000011F 	  pop 	 [287]
00005083 	 00000013 	 00002D09 	 call 	 rb9
00005084 	 A0000003 	 00000138 	  pop 	 [312]
00005085 	 A0000003 	 00000139 	  pop 	 [313]
00005086 	 A0000003 	 0000013A 	  pop 	 [314]
00005087 	 00000013 	 00002D09 	 call 	 rb9
00005088 	 A0000003 	 00000147 	  pop 	 [327]
00005089 	 A0000003 	 00000148 	  pop 	 [328]
00005090 	 A0000003 	 00000149 	  pop 	 [329]
00005091 	 00000013 	 00002D09 	 call 	 rb9
00005092 	 A0000003 	 0000015C 	  pop 	 [348]
00005093 	 A0000003 	 0000015D 	  pop 	 [349]
00005094 	 A0000003 	 0000015E 	  pop 	 [350]
00005095 	 00000013 	 00002D09 	 call 	 rb9
00005096 	 A0000003 	 000001BC 	  pop 	 [444]
00005097 	 A0000003 	 000001BD 	  pop 	 [445]
00005098 	 A0000003 	 000001BE 	  pop 	 [446]
00005099 	 00000013 	 00002D09 	 call 	 rb9
00005100 	 A0000003 	 0000021C 	  pop 	 [540]
00005101 	 A0000003 	 0000021D 	  pop 	 [541]
00005102 	 A0000003 	 0000021E 	  pop 	 [542]
00005103 	 00000013 	 00002D09 	 call 	 rb9
00005104 	 A0000003 	 0000027C 	  pop 	 [636]
00005105 	 A0000003 	 0000027D 	  pop 	 [637]
00005106 	 A0000003 	 0000027E 	  pop 	 [638]
00005107 	 00000013 	 00002D09 	 call 	 rb9
00005108 	 A0000003 	 000002DC 	  pop 	 [732]
00005109 	 A0000003 	 000002DD 	  pop 	 [733]
00005110 	 A0000003 	 000002DE 	  pop 	 [734]
00005111 	 00000013 	 00002D09 	 call 	 rb9
00005112 	 A0000003 	 0000033C 	  pop 	 [828]
00005113 	 A0000003 	 0000033D 	  pop 	 [829]
00005114 	 A0000003 	 0000033E 	  pop 	 [830]
00005115 	 00000013 	 00002D09 	 call 	 rb9
00005116 	 A0000003 	 0000039C 	  pop 	 [924]
00005117 	 A0000003 	 0000039D 	  pop 	 [925]
00005118 	 A0000003 	 0000039E 	  pop 	 [926]
00005119 	 00000013 	 00002D09 	 call 	 rb9
00005120 	 A0000003 	 000003FC 	  pop 	 [1020]
00005121 	 A0000003 	 000003FD 	  pop 	 [1021]
00005122 	 A0000003 	 000003FE 	  pop 	 [1022]
00005123 	 00000013 	 00002D09 	 call 	 rb9
00005124 	 A0000003 	 0000045C 	  pop 	 [1116]
00005125 	 A0000003 	 0000045D 	  pop 	 [1117]
00005126 	 A0000003 	 0000045E 	  pop 	 [1118]
00005127 	 00000013 	 00002D09 	 call 	 rb9
00005128 	 A0000003 	 000004BC 	  pop 	 [1212]
00005129 	 A0000003 	 000004BD 	  pop 	 [1213]
00005130 	 A0000003 	 000004BE 	  pop 	 [1214]
00005131 	 00000013 	 00002D09 	 call 	 rb9
00005132 	 A0000003 	 0000051C 	  pop 	 [1308]
00005133 	 A0000003 	 0000051D 	  pop 	 [1309]
00005134 	 A0000003 	 0000051E 	  pop 	 [1310]
00005135 	 00000013 	 00002D09 	 call 	 rb9
00005136 	 A0000003 	 0000057C 	  pop 	 [1404]
00005137 	 A0000003 	 0000057D 	  pop 	 [1405]
00005138 	 A0000003 	 0000057E 	  pop 	 [1406]
00005139 	 00000013 	 00002D09 	 call 	 rb9
00005140 	 A0000003 	 000005DC 	  pop 	 [1500]
00005141 	 A0000003 	 000005DD 	  pop 	 [1501]
00005142 	 A0000003 	 000005DE 	  pop 	 [1502]
00005143 	 00000013 	 00002D09 	 call 	 rb9
00005144 	 A0000003 	 00000198 	  pop 	 [408]
00005145 	 A0000003 	 00000199 	  pop 	 [409]
00005146 	 A0000003 	 0000019A 	  pop 	 [410]
00005147 	 00000013 	 00002D09 	 call 	 rb9
00005148 	 A0000003 	 000001A7 	  pop 	 [423]
00005149 	 A0000003 	 000001A8 	  pop 	 [424]
00005150 	 A0000003 	 000001A9 	  pop 	 [425]
00005151 	 00000013 	 00002D09 	 call 	 rb9
00005152 	 A0000003 	 000001F8 	  pop 	 [504]
00005153 	 A0000003 	 000001F9 	  pop 	 [505]
00005154 	 A0000003 	 000001FA 	  pop 	 [506]
00005155 	 00000013 	 00002D09 	 call 	 rb9
00005156 	 A0000003 	 00000207 	  pop 	 [519]
00005157 	 A0000003 	 00000208 	  pop 	 [520]
00005158 	 A0000003 	 00000209 	  pop 	 [521]
00005159 	 00000013 	 00002D09 	 call 	 rb9
00005160 	 A0000003 	 00000258 	  pop 	 [600]
00005161 	 A0000003 	 00000259 	  pop 	 [601]
00005162 	 A0000003 	 0000025A 	  pop 	 [602]
00005163 	 00000013 	 00002D09 	 call 	 rb9
00005164 	 A0000003 	 00000267 	  pop 	 [615]
00005165 	 A0000003 	 00000268 	  pop 	 [616]
00005166 	 A0000003 	 00000269 	  pop 	 [617]
00005167 	 00000013 	 00002D09 	 call 	 rb9
00005168 	 A0000003 	 000002B8 	  pop 	 [696]
00005169 	 A0000003 	 000002B9 	  pop 	 [697]
00005170 	 A0000003 	 000002BA 	  pop 	 [698]
00005171 	 00000013 	 00002D09 	 call 	 rb9
00005172 	 A0000003 	 000002BB 	  pop 	 [699]
00005173 	 A0000003 	 000002BC 	  pop 	 [700]
00005174 	 A0000003 	 000002BD 	  pop 	 [701]
00005175 	 00000013 	 00002D09 	 call 	 rb9
00005176 	 A0000003 	 000002BE 	  pop 	 [702]
00005177 	 A0000003 	 000002BF 	  pop 	 [703]
00005178 	 A0000003 	 000002C0 	  pop 	 [704]
00005179 	 00000013 	 00002D09 	 call 	 rb9
00005180 	 A0000003 	 000002C1 	  pop 	 [705]
00005181 	 A0000003 	 000002C2 	  pop 	 [706]
00005182 	 A0000003 	 000002C3 	  pop 	 [707]
00005183 	 00000013 	 00002D09 	 call 	 rb9
00005184 	 A0000003 	 000002C4 	  pop 	 [708]
00005185 	 A0000003 	 000002C5 	  pop 	 [709]
00005186 	 A0000003 	 000002C6 	  pop 	 [710]
00005187 	 00000013 	 00002D09 	 call 	 rb9
00005188 	 A0000003 	 00000318 	  pop 	 [792]
00005189 	 A0000003 	 00000319 	  pop 	 [793]
00005190 	 A0000003 	 0000031A 	  pop 	 [794]
00005191 	 00000013 	 00002D09 	 call 	 rb9
00005192 	 A0000003 	 00000378 	  pop 	 [888]
00005193 	 A0000003 	 00000379 	  pop 	 [889]
00005194 	 A0000003 	 0000037A 	  pop 	 [890]
00005195 	 00000013 	 00002D09 	 call 	 rb9
00005196 	 A0000003 	 000003D8 	  pop 	 [984]
00005197 	 A0000003 	 000003D9 	  pop 	 [985]
00005198 	 A0000003 	 000003DA 	  pop 	 [986]
00005199 	 00000013 	 00002D09 	 call 	 rb9
00005200 	 A0000003 	 00000438 	  pop 	 [1080]
00005201 	 A0000003 	 00000439 	  pop 	 [1081]
00005202 	 A0000003 	 0000043A 	  pop 	 [1082]
00005203 	 00000013 	 00002D09 	 call 	 rb9
00005204 	 A0000003 	 00000498 	  pop 	 [1176]
00005205 	 A0000003 	 00000499 	  pop 	 [1177]
00005206 	 A0000003 	 0000049A 	  pop 	 [1178]
00005207 	 00000013 	 00002D09 	 call 	 rb9
00005208 	 A0000003 	 000004F8 	  pop 	 [1272]
00005209 	 A0000003 	 000004F9 	  pop 	 [1273]
00005210 	 A0000003 	 000004FA 	  pop 	 [1274]
00005211 	 00000013 	 00002D09 	 call 	 rb9
00005212 	 A0000003 	 00000558 	  pop 	 [1368]
00005213 	 A0000003 	 00000559 	  pop 	 [1369]
00005214 	 A0000003 	 0000055A 	  pop 	 [1370]
00005215 	 00000013 	 00002D09 	 call 	 rb9
00005216 	 A0000003 	 000005B8 	  pop 	 [1464]
00005217 	 A0000003 	 000005B9 	  pop 	 [1465]
00005218 	 A0000003 	 000005BA 	  pop 	 [1466]
00005219 	 00000016 	          	 scan
00005220 	 00000017 	          	 draw
00005221 	 00000013 	 00002D1E 	 call 	 gray
00005222 	 A0000003 	 00000000 	  pop 	 [0]
00005223 	 A0000003 	 00000001 	  pop 	 [1]
00005224 	 A0000003 	 00000002 	  pop 	 [2]
00005225 	 00000013 	 00002D17 	 call 	 black
00005226 	 A0000003 	 00000003 	  pop 	 [3]
00005227 	 A0000003 	 00000004 	  pop 	 [4]
00005228 	 A0000003 	 00000005 	  pop 	 [5]
00005229 	 00000013 	 00002D1E 	 call 	 gray
00005230 	 A0000003 	 00000006 	  pop 	 [6]
00005231 	 A0000003 	 00000007 	  pop 	 [7]
00005232 	 A0000003 	 00000008 	  pop 	 [8]
00005233 	 00000013 	 00002D17 	 call 	 black
00005234 	 A0000003 	 00000009 	  pop 	 [9]
00005235 	 A0000003 	 0000000A 	  pop 	 [10]
00005236 	 A0000003 	 0000000B 	  pop 	 [11]
00005237 	 00000013 	 00002D1E 	 call 	 gray
00005238 	 A0000003 	 0000000C 	  pop 	 [12]
00005239 	 A0000003 	 0000000D 	  pop 	 [13]
00005240 	 A0000003 	 0000000E 	  pop 	 [14]
00005241 	 00000013 	 00002D17 	 call 	 black
00005242 	 A0000003 	 0000000F 	  pop 	 [15]
00005243 	 A0000003 	 00000010 	  pop 	 [16]
00005244 	 A0000003 	 00000011 	  pop 	 [17]
00005245 	 00000013 	 00002D1E 	 call 	 gray
00005246 	 A0000003 	 00000012 	  pop 	 [18]
00005247 	 A0000003 	 00000013 	  pop 	 [19]
00005248 	 A0000003 	 00000014 	  pop 	 [20]
00005249 	 00000013 	 00002D17 	 call 	 black
00005250 	 A0000003 	 00000015 	  pop 	 [21]
00005251 	 A0000003 	 00000016 	  pop 	 [22]
00005252 	 A0000003 	 00000017 	  pop 	 [23]
00005253 	 00000013 	 00002D1E 	 call 	 gray
00005254 	 A0000003 	 00000018 	  pop 	 [24]
00005255 	 A0000003 	 00000019 	  pop 	 [25]
00005256 	 A0000003 	 0000001A 	  pop 	 [26]
00005257 	 00000013 	 00002D17 	 call 	 black
00005258 	 A0000003 	 0000001B 	  pop 	 [27]
00005259 	 A0000003 	 0000001C 	  pop 	 [28]
00005260 	 A0000003 	 0000001D 	  pop 	 [29]
00005261 	 00000013 	 00002D1E 	 call 	 gray
00005262 	 A0000003 	 0000001E 	  pop 	 [30]
00005263 	 A0000003 	 0000001F 	  pop 	 [31]
00005264 	 A0000003 	 00000020 	  pop 	 [32]
00005265 	 00000013 	 00002D17 	 call 	 black
00005266 	 A0000003 	 00000021 	  pop 	 [33]
00005267 	 A0000003 	 00000022 	  pop 	 [34]
00005268 	 A0000003 	 00000023 	  pop 	 [35]
00005269 	 00000013 	 00002D1E 	 call 	 gray
00005270 	 A0000003 	 00000024 	  pop 	 [36]
00005271 	 A0000003 	 00000025 	  pop 	 [37]
00005272 	 A0000003 	 00000026 	  pop 	 [38]
00005273 	 00000013 	 00002D17 	 call 	 black
00005274 	 A0000003 	 00000027 	  pop 	 [39]
00005275 	 A0000003 	 00000028 	  pop 	 [40]
00005276 	 A0000003 	 00000029 	  pop 	 [41]
00005277 	 00000013 	 00002D1E 	 call 	 gray
00005278 	 A0000003 	 0000002A 	  pop 	 [42]
00005279 	 A0000003 	 0000002B 	  pop 	 [43]
00005280 	 A0000003 	 0000002C 	  pop 	 [44]
00005281 	 00000013 	 00002D17 	 call 	 black
00005282 	 A0000003 	 0000002D 	  pop 	 [45]
00005283 	 A0000003 	 0000002E 	  pop 	 [46]
00005284 	 A0000003 	 0000002F 	  pop 	 [47]
00005285 	 00000013 	 00002D1E 	 call 	 gray
00005286 	 A0000003 	 00000030 	  pop 	 [48]
00005287 	 A0000003 	 00000031 	  pop 	 [49]
00005288 	 A0000003 	 00000032 	  pop 	 [50]
00005289 	 00000013 	 00002D17 	 call 	 black
00005290 	 A0000003 	 00000033 	  pop 	 [51]
00005291 	 A0000003 	 00000034 	  pop 	 [52]
00005292 	 A0000003 	 00000035 	  pop 	 [53]
00005293 	 00000013 	 00002D1E 	 call 	 gray
00005294 	 A0000003 	 00000036 	  pop 	 [54]
00005295 	 A0000003 	 00000037 	  pop 	 [55]
00005296 	 A0000003 	 00000038 	  pop 	 [56]
00005297 	 00000013 	 00002D17 	 call 	 black
00005298 	 A0000003 	 00000039 	  pop 	 [57]
00005299 	 A0000003 	 0000003A 	  pop 	 [58]
00005300 	 A0000003 	 0000003B 	  pop 	 [59]
00005301 	 00000013 	 00002D1E 	 call 	 gray
00005302 	 A0000003 	 0000003C 	  pop 	 [60]
00005303 	 A0000003 	 0000003D 	  pop 	 [61]
00005304 	 A0000003 	 0000003E 	  pop 	 [62]
00005305 	 00000013 	 00002D17 	 call 	 black
00005306 	 A0000003 	 0000003F 	  pop 	 [63]
00005307 	 A0000003 	 00000040 	  pop 	 [64]
00005308 	 A0000003 	 00000041 	  pop 	 [65]
00005309 	 00000013 	 00002D1E 	 call 	 gray
00005310 	 A0000003 	 00000042 	  pop 	 [66]
00005311 	 A0000003 	 00000043 	  pop 	 [67]
00005312 	 A0000003 	 00000044 	  pop 	 [68]
00005313 	 00000013 	 00002D17 	 call 	 black
00005314 	 A0000003 	 00000045 	  pop 	 [69]
00005315 	 A0000003 	 00000046 	  pop 	 [70]
00005316 	 A0000003 	 00000047 	  pop 	 [71]
00005317 	 00000013 	 00002D1E 	 call 	 gray
00005318 	 A0000003 	 00000048 	  pop 	 [72]
00005319 	 A0000003 	 00000049 	  pop 	 [73]
00005320 	 A0000003 	 0000004A 	  pop 	 [74]
00005321 	 00000013 	 00002D17 	 call 	 black
00005322 	 A0000003 	 0000004B 	  pop 	 [75]
00005323 	 A0000003 	 0000004C 	  pop 	 [76]
00005324 	 A0000003 	 0000004D 	  pop 	 [77]
00005325 	 00000013 	 00002D1E 	 call 	 gray
00005326 	 A0000003 	 0000004E 	  pop 	 [78]
00005327 	 A0000003 	 0000004F 	  pop 	 [79]
00005328 	 A0000003 	 00000050 	  pop 	 [80]
00005329 	 00000013 	 00002D17 	 call 	 black
00005330 	 A0000003 	 00000051 	  pop 	 [81]
00005331 	 A0000003 	 00000052 	  pop 	 [82]
00005332 	 A0000003 	 00000053 	  pop 	 [83]
00005333 	 00000013 	 00002D1E 	 call 	 gray
00005334 	 A0000003 	 00000054 	  pop 	 [84]
00005335 	 A0000003 	 00000055 	  pop 	 [85]
00005336 	 A0000003 	 00000056 	  pop 	 [86]
00005337 	 00000013 	 00002D17 	 call 	 black
00005338 	 A0000003 	 00000057 	  pop 	 [87]
00005339 	 A0000003 	 00000058 	  pop 	 [88]
00005340 	 A0000003 	 00000059 	  pop 	 [89]
00005341 	 00000013 	 00002D1E 	 call 	 gray
00005342 	 A0000003 	 0000005A 	  pop 	 [90]
00005343 	 A0000003 	 0000005B 	  pop 	 [91]
00005344 	 A0000003 	 0000005C 	  pop 	 [92]
00005345 	 00000013 	 00002D17 	 call 	 black
00005346 	 A0000003 	 0000005D 	  pop 	 [93]
00005347 	 A0000003 	 0000005E 	  pop 	 [94]
00005348 	 A0000003 	 0000005F 	  pop 	 [95]
00005349 	 00000013 	 00002D1E 	 call 	 gray
00005350 	 A0000003 	 00000060 	  pop 	 [96]
00005351 	 A0000003 	 00000061 	  pop 	 [97]
00005352 	 A0000003 	 00000062 	  pop 	 [98]
00005353 	 00000013 	 00002D17 	 call 	 black
00005354 	 A0000003 	 00000063 	  pop 	 [99]
00005355 	 A0000003 	 00000064 	  pop 	 [100]
00005356 	 A0000003 	 00000065 	  pop 	 [101]
00005357 	 00000013 	 00002D1E 	 call 	 gray
00005358 	 A0000003 	 00000066 	  pop 	 [102]
00005359 	 A0000003 	 00000067 	  pop 	 [103]
00005360 	 A0000003 	 00000068 	  pop 	 [104]
00005361 	 00000013 	 00002D17 	 call 	 black
00005362 	 A0000003 	 00000069 	  pop 	 [105]
00005363 	 A0000003 	 0000006A 	  pop 	 [106]
00005364 	 A0000003 	 0000006B 	  pop 	 [107]
00005365 	 00000013 	 00002D1E 	 call 	 gray
00005366 	 A0000003 	 0000006C 	  pop 	 [108]
00005367 	 A0000003 	 0000006D 	  pop 	 [109]
00005368 	 A0000003 	 0000006E 	  pop 	 [110]
00005369 	 00000013 	 00002D17 	 call 	 black
00005370 	 A0000003 	 0000006F 	  pop 	 [111]
00005371 	 A0000003 	 00000070 	  pop 	 [112]
00005372 	 A0000003 	 00000071 	  pop 	 [113]
00005373 	 00000013 	 00002D1E 	 call 	 gray
00005374 	 A0000003 	 00000072 	  pop 	 [114]
00005375 	 A0000003 	 00000073 	  pop 	 [115]
00005376 	 A0000003 	 00000074 	  pop 	 [116]
00005377 	 00000013 	 00002D17 	 call 	 black
00005378 	 A0000003 	 00000075 	  pop 	 [117]
00005379 	 A0000003 	 00000076 	  pop 	 [118]
00005380 	 A0000003 	 00000077 	  pop 	 [119]
00005381 	 00000013 	 00002D1E 	 call 	 gray
00005382 	 A0000003 	 00000078 	  pop 	 [120]
00005383 	 A0000003 	 00000079 	  pop 	 [121]
00005384 	 A0000003 	 0000007A 	  pop 	 [122]
00005385 	 00000013 	 00002D17 	 call 	 black
00005386 	 A0000003 	 0000007B 	  pop 	 [123]
00005387 	 A0000003 	 0000007C 	  pop 	 [124]
00005388 	 A0000003 	 0000007D 	  pop 	 [125]
00005389 	 00000013 	 00002D1E 	 call 	 gray
00005390 	 A0000003 	 0000007E 	  pop 	 [126]
00005391 	 A0000003 	 0000007F 	  pop 	 [127]
00005392 	 A0000003 	 00000080 	  pop 	 [128]
00005393 	 00000013 	 00002D17 	 call 	 black
00005394 	 A0000003 	 00000081 	  pop 	 [129]
00005395 	 A0000003 	 00000082 	  pop 	 [130]
00005396 	 A0000003 	 00000083 	  pop 	 [131]
00005397 	 00000013 	 00002D1E 	 call 	 gray
00005398 	 A0000003 	 00000084 	  pop 	 [132]
00005399 	 A0000003 	 00000085 	  pop 	 [133]
00005400 	 A0000003 	 00000086 	  pop 	 [134]
00005401 	 00000013 	 00002D17 	 call 	 black
00005402 	 A0000003 	 00000087 	  pop 	 [135]
00005403 	 A0000003 	 00000088 	  pop 	 [136]
00005404 	 A0000003 	 00000089 	  pop 	 [137]
00005405 	 00000013 	 00002D1E 	 call 	 gray
00005406 	 A0000003 	 0000008A 	  pop 	 [138]
00005407 	 A0000003 	 0000008B 	  pop 	 [139]
00005408 	 A0000003 	 0000008C 	  pop 	 [140]
00005409 	 00000013 	 00002D17 	 call 	 black
00005410 	 A0000003 	 0000008D 	  pop 	 [141]
00005411 	 A0000003 	 0000008E 	  pop 	 [142]
00005412 	 A0000003 	 0000008F 	  pop 	 [143]
00005413 	 00000013 	 00002D1E 	 call 	 gray
00005414 	 A0000003 	 00000090 	  pop 	 [144]
00005415 	 A0000003 	 00000091 	  pop 	 [145]
00005416 	 A0000003 	 00000092 	  pop 	 [146]
00005417 	 00000013 	 00002D17 	 call 	 black
00005418 	 A0000003 	 00000093 	  pop 	 [147]
00005419 	 A0000003 	 00000094 	  pop 	 [148]
00005420 	 A0000003 	 00000095 	  pop 	 [149]
00005421 	 00000013 	 00002D1E 	 call 	 gray
00005422 	 A0000003 	 00000096 	  pop 	 [150]
00005423 	 A0000003 	 00000097 	  pop 	 [151]
00005424 	 A0000003 	 00000098 	  pop 	 [152]
00005425 	 00000013 	 00002D17 	 call 	 black
00005426 	 A0000003 	 00000099 	  pop 	 [153]
00005427 	 A0000003 	 0000009A 	  pop 	 [154]
00005428 	 A0000003 	 0000009B 	  pop 	 [155]
00005429 	 00000013 	 00002D1E 	 call 	 gray
00005430 	 A0000003 	 0000009C 	  pop 	 [156]
00005431 	 A0000003 	 0000009D 	  pop 	 [157]
00005432 	 A0000003 	 0000009E 	  pop 	 [158]
00005433 	 00000013 	 00002D17 	 call 	 black
00005434 	 A0000003 	 0000009F 	  pop 	 [159]
00005435 	 A0000003 	 000000A0 	  pop 	 [160]
00005436 	 A0000003 	 000000A1 	  pop 	 [161]
00005437 	 00000013 	 00002D1E 	 call 	 gray
00005438 	 A0000003 	 000000A2 	  pop 	 [162]
00005439 	 A0000003 	 000000A3 	  pop 	 [163]
00005440 	 A0000003 	 000000A4 	  pop 	 [164]
00005441 	 00000013 	 00002D17 	 call 	 black
00005442 	 A0000003 	 000000A5 	  pop 	 [165]
00005443 	 A0000003 	 000000A6 	  pop 	 [166]
00005444 	 A0000003 	 000000A7 	  pop 	 [167]
00005445 	 00000013 	 00002D1E 	 call 	 gray
00005446 	 A0000003 	 000000A8 	  pop 	 [168]
00005447 	 A0000003 	 000000A9 	  pop 	 [169]
00005448 	 A0000003 	 000000AA 	  pop 	 [170]
00005449 	 00000013 	 00002D17 	 call 	 black
00005450 	 A0000003 	 000000AB 	  pop 	 [171]
00005451 	 A0000003 	 000000AC 	  pop 	 [172]
00005452 	 A0000003 	 000000AD 	  pop 	 [173]
00005453 	 00000013 	 00002D1E 	 call 	 gray
00005454 	 A0000003 	 000000AE 	  pop 	 [174]
00005455 	 A0000003 	 000000AF 	  pop 	 [175]
00005456 	 A0000003 	 000000B0 	  pop 	 [176]
00005457 	 00000013 	 00002D17 	 call 	 black
00005458 	 A0000003 	 000000B1 	  pop 	 [177]
00005459 	 A0000003 	 000000B2 	  pop 	 [178]
00005460 	 A0000003 	 000000B3 	  pop 	 [179]
00005461 	 00000013 	 00002D1E 	 call 	 gray
00005462 	 A0000003 	 000000B4 	  pop 	 [180]
00005463 	 A0000003 	 000000B5 	  pop 	 [181]
00005464 	 A0000003 	 000000B6 	  pop 	 [182]
00005465 	 00000013 	 00002D17 	 call 	 black
00005466 	 A0000003 	 000000B7 	  pop 	 [183]
00005467 	 A0000003 	 000000B8 	  pop 	 [184]
00005468 	 A0000003 	 000000B9 	  pop 	 [185]
00005469 	 00000013 	 00002D1E 	 call 	 gray
00005470 	 A0000003 	 000000BA 	  pop 	 [186]
00005471 	 A0000003 	 000000BB 	  pop 	 [187]
00005472 	 A0000003 	 000000BC 	  pop 	 [188]
00005473 	 00000013 	 00002D17 	 call 	 black
00005474 	 A0000003 	 000000BD 	  pop 	 [189]
00005475 	 A0000003 	 000000BE 	  pop 	 [190]
00005476 	 A0000003 	 000000BF 	  pop 	 [191]
00005477 	 00000013 	 00002D1E 	 call 	 gray
00005478 	 A0000003 	 000000C0 	  pop 	 [192]
00005479 	 A0000003 	 000000C1 	  pop 	 [193]
00005480 	 A0000003 	 000000C2 	  pop 	 [194]
00005481 	 00000013 	 00002D17 	 call 	 black
00005482 	 A0000003 	 000000C3 	  pop 	 [195]
00005483 	 A0000003 	 000000C4 	  pop 	 [196]
00005484 	 A0000003 	 000000C5 	  pop 	 [197]
00005485 	 00000013 	 00002D1E 	 call 	 gray
00005486 	 A0000003 	 000000C6 	  pop 	 [198]
00005487 	 A0000003 	 000000C7 	  pop 	 [199]
00005488 	 A0000003 	 000000C8 	  pop 	 [200]
00005489 	 00000013 	 00002D17 	 call 	 black
00005490 	 A0000003 	 000000C9 	  pop 	 [201]
00005491 	 A0000003 	 000000CA 	  pop 	 [202]
00005492 	 A0000003 	 000000CB 	  pop 	 [203]
00005493 	 00000013 	 00002D1E 	 call 	 gray
00005494 	 A0000003 	 000000CC 	  pop 	 [204]
00005495 	 A0000003 	 000000CD 	  pop 	 [205]
00005496 	 A0000003 	 000000CE 	  pop 	 [206]
00005497 	 00000013 	 00002D17 	 call 	 black
00005498 	 A0000003 	 000000CF 	  pop 	 [207]
00005499 	 A0000003 	 000000D0 	  pop 	 [208]
00005500 	 A0000003 	 000000D1 	  pop 	 [209]
00005501 	 00000013 	 00002D1E 	 call 	 gray
00005502 	 A0000003 	 000000D2 	  pop 	 [210]
00005503 	 A0000003 	 000000D3 	  pop 	 [211]
00005504 	 A0000003 	 000000D4 	  pop 	 [212]
00005505 	 00000013 	 00002D17 	 call 	 black
00005506 	 A0000003 	 000000D5 	  pop 	 [213]
00005507 	 A0000003 	 000000D6 	  pop 	 [214]
00005508 	 A0000003 	 000000D7 	  pop 	 [215]
00005509 	 00000013 	 00002D10 	 call 	 blue
00005510 	 A0000003 	 000000D8 	  pop 	 [216]
00005511 	 A0000003 	 000000D9 	  pop 	 [217]
00005512 	 A0000003 	 000000DA 	  pop 	 [218]
00005513 	 00000013 	 00002D10 	 call 	 blue
00005514 	 A0000003 	 000000DB 	  pop 	 [219]
00005515 	 A0000003 	 000000DC 	  pop 	 [220]
00005516 	 A0000003 	 000000DD 	  pop 	 [221]
00005517 	 00000013 	 00002D10 	 call 	 blue
00005518 	 A0000003 	 000000DE 	  pop 	 [222]
00005519 	 A0000003 	 000000DF 	  pop 	 [223]
00005520 	 A0000003 	 000000E0 	  pop 	 [224]
00005521 	 00000013 	 00002D10 	 call 	 blue
00005522 	 A0000003 	 000000E1 	  pop 	 [225]
00005523 	 A0000003 	 000000E2 	  pop 	 [226]
00005524 	 A0000003 	 000000E3 	  pop 	 [227]
00005525 	 00000013 	 00002D10 	 call 	 blue
00005526 	 A0000003 	 000000E4 	  pop 	 [228]
00005527 	 A0000003 	 000000E5 	  pop 	 [229]
00005528 	 A0000003 	 000000E6 	  pop 	 [230]
00005529 	 00000013 	 00002D17 	 call 	 black
00005530 	 A0000003 	 000000E7 	  pop 	 [231]
00005531 	 A0000003 	 000000E8 	  pop 	 [232]
00005532 	 A0000003 	 000000E9 	  pop 	 [233]
00005533 	 00000013 	 00002D1E 	 call 	 gray
00005534 	 A0000003 	 000000EA 	  pop 	 [234]
00005535 	 A0000003 	 000000EB 	  pop 	 [235]
00005536 	 A0000003 	 000000EC 	  pop 	 [236]
00005537 	 00000013 	 00002D17 	 call 	 black
00005538 	 A0000003 	 000000ED 	  pop 	 [237]
00005539 	 A0000003 	 000000EE 	  pop 	 [238]
00005540 	 A0000003 	 000000EF 	  pop 	 [239]
00005541 	 00000013 	 00002D10 	 call 	 blue
00005542 	 A0000003 	 000000F0 	  pop 	 [240]
00005543 	 A0000003 	 000000F1 	  pop 	 [241]
00005544 	 A0000003 	 000000F2 	  pop 	 [242]
00005545 	 00000013 	 00002D10 	 call 	 blue
00005546 	 A0000003 	 000000F3 	  pop 	 [243]
00005547 	 A0000003 	 000000F4 	  pop 	 [244]
00005548 	 A0000003 	 000000F5 	  pop 	 [245]
00005549 	 00000013 	 00002D10 	 call 	 blue
00005550 	 A0000003 	 000000F6 	  pop 	 [246]
00005551 	 A0000003 	 000000F7 	  pop 	 [247]
00005552 	 A0000003 	 000000F8 	  pop 	 [248]
00005553 	 00000013 	 00002D10 	 call 	 blue
00005554 	 A0000003 	 000000F9 	  pop 	 [249]
00005555 	 A0000003 	 000000FA 	  pop 	 [250]
00005556 	 A0000003 	 000000FB 	  pop 	 [251]
00005557 	 00000013 	 00002D10 	 call 	 blue
00005558 	 A0000003 	 000000FC 	  pop 	 [252]
00005559 	 A0000003 	 000000FD 	  pop 	 [253]
00005560 	 A0000003 	 000000FE 	  pop 	 [254]
00005561 	 00000013 	 00002D10 	 call 	 blue
00005562 	 A0000003 	 000000FF 	  pop 	 [255]
00005563 	 A0000003 	 00000100 	  pop 	 [256]
00005564 	 A0000003 	 00000101 	  pop 	 [257]
00005565 	 00000013 	 00002D10 	 call 	 blue
00005566 	 A0000003 	 00000102 	  pop 	 [258]
00005567 	 A0000003 	 00000103 	  pop 	 [259]
00005568 	 A0000003 	 00000104 	  pop 	 [260]
00005569 	 00000013 	 00002D10 	 call 	 blue
00005570 	 A0000003 	 00000105 	  pop 	 [261]
00005571 	 A0000003 	 00000106 	  pop 	 [262]
00005572 	 A0000003 	 00000107 	  pop 	 [263]
00005573 	 00000013 	 00002D10 	 call 	 blue
00005574 	 A0000003 	 00000108 	  pop 	 [264]
00005575 	 A0000003 	 00000109 	  pop 	 [265]
00005576 	 A0000003 	 0000010A 	  pop 	 [266]
00005577 	 00000013 	 00002D17 	 call 	 black
00005578 	 A0000003 	 0000010B 	  pop 	 [267]
00005579 	 A0000003 	 0000010C 	  pop 	 [268]
00005580 	 A0000003 	 0000010D 	  pop 	 [269]
00005581 	 00000013 	 00002D1E 	 call 	 gray
00005582 	 A0000003 	 0000010E 	  pop 	 [270]
00005583 	 A0000003 	 0000010F 	  pop 	 [271]
00005584 	 A0000003 	 00000110 	  pop 	 [272]
00005585 	 00000013 	 00002D17 	 call 	 black
00005586 	 A0000003 	 00000111 	  pop 	 [273]
00005587 	 A0000003 	 00000112 	  pop 	 [274]
00005588 	 A0000003 	 00000113 	  pop 	 [275]
00005589 	 00000013 	 00002D1E 	 call 	 gray
00005590 	 A0000003 	 00000114 	  pop 	 [276]
00005591 	 A0000003 	 00000115 	  pop 	 [277]
00005592 	 A0000003 	 00000116 	  pop 	 [278]
00005593 	 00000013 	 00002D17 	 call 	 black
00005594 	 A0000003 	 00000117 	  pop 	 [279]
00005595 	 A0000003 	 00000118 	  pop 	 [280]
00005596 	 A0000003 	 00000119 	  pop 	 [281]
00005597 	 00000013 	 00002D1E 	 call 	 gray
00005598 	 A0000003 	 0000011A 	  pop 	 [282]
00005599 	 A0000003 	 0000011B 	  pop 	 [283]
00005600 	 A0000003 	 0000011C 	  pop 	 [284]
00005601 	 00000013 	 00002D17 	 call 	 black
00005602 	 A0000003 	 0000011D 	  pop 	 [285]
00005603 	 A0000003 	 0000011E 	  pop 	 [286]
00005604 	 A0000003 	 0000011F 	  pop 	 [287]
00005605 	 00000013 	 00002D10 	 call 	 blue
00005606 	 A0000003 	 00000138 	  pop 	 [312]
00005607 	 A0000003 	 00000139 	  pop 	 [313]
00005608 	 A0000003 	 0000013A 	  pop 	 [314]
00005609 	 00000013 	 00002D10 	 call 	 blue
00005610 	 A0000003 	 00000147 	  pop 	 [327]
00005611 	 A0000003 	 00000148 	  pop 	 [328]
00005612 	 A0000003 	 00000149 	  pop 	 [329]
00005613 	 00000013 	 00002D10 	 call 	 blue
00005614 	 A0000003 	 0000015C 	  pop 	 [348]
00005615 	 A0000003 	 0000015D 	  pop 	 [349]
00005616 	 A0000003 	 0000015E 	  pop 	 [350]
00005617 	 00000013 	 00002D10 	 call 	 blue
00005618 	 A0000003 	 000001BC 	  pop 	 [444]
00005619 	 A0000003 	 000001BD 	  pop 	 [445]
00005620 	 A0000003 	 000001BE 	  pop 	 [446]
00005621 	 00000013 	 00002D10 	 call 	 blue
00005622 	 A0000003 	 0000021C 	  pop 	 [540]
00005623 	 A0000003 	 0000021D 	  pop 	 [541]
00005624 	 A0000003 	 0000021E 	  pop 	 [542]
00005625 	 00000013 	 00002D10 	 call 	 blue
00005626 	 A0000003 	 0000027C 	  pop 	 [636]
00005627 	 A0000003 	 0000027D 	  pop 	 [637]
00005628 	 A0000003 	 0000027E 	  pop 	 [638]
00005629 	 00000013 	 00002D10 	 call 	 blue
00005630 	 A0000003 	 000002DC 	  pop 	 [732]
00005631 	 A0000003 	 000002DD 	  pop 	 [733]
00005632 	 A0000003 	 000002DE 	  pop 	 [734]
00005633 	 00000013 	 00002D10 	 call 	 blue
00005634 	 A0000003 	 0000033C 	  pop 	 [828]
00005635 	 A0000003 	 0000033D 	  pop 	 [829]
00005636 	 A0000003 	 0000033E 	  pop 	 [830]
00005637 	 00000013 	 00002D10 	 call 	 blue
00005638 	 A0000003 	 0000039C 	  pop 	 [924]
00005639 	 A0000003 	 0000039D 	  pop 	 [925]
00005640 	 A0000003 	 0000039E 	  pop 	 [926]
00005641 	 00000013 	 00002D10 	 call 	 blue
00005642 	 A0000003 	 000003FC 	  pop 	 [1020]
00005643 	 A0000003 	 000003FD 	  pop 	 [1021]
00005644 	 A0000003 	 000003FE 	  pop 	 [1022]
00005645 	 00000013 	 00002D10 	 call 	 blue
00005646 	 A0000003 	 0000045C 	  pop 	 [1116]
00005647 	 A0000003 	 0000045D 	  pop 	 [1117]
00005648 	 A0000003 	 0000045E 	  pop 	 [1118]
00005649 	 00000013 	 00002D10 	 call 	 blue
00005650 	 A0000003 	 000004BC 	  pop 	 [1212]
00005651 	 A0000003 	 000004BD 	  pop 	 [1213]
00005652 	 A0000003 	 000004BE 	  pop 	 [1214]
00005653 	 00000013 	 00002D10 	 call 	 blue
00005654 	 A0000003 	 0000051C 	  pop 	 [1308]
00005655 	 A0000003 	 0000051D 	  pop 	 [1309]
00005656 	 A0000003 	 0000051E 	  pop 	 [1310]
00005657 	 00000013 	 00002D10 	 call 	 blue
00005658 	 A0000003 	 0000057C 	  pop 	 [1404]
00005659 	 A0000003 	 0000057D 	  pop 	 [1405]
00005660 	 A0000003 	 0000057E 	  pop 	 [1406]
00005661 	 00000013 	 00002D10 	 call 	 blue
00005662 	 A0000003 	 000005DC 	  pop 	 [1500]
00005663 	 A0000003 	 000005DD 	  pop 	 [1501]
00005664 	 A0000003 	 000005DE 	  pop 	 [1502]
00005665 	 00000013 	 00002D10 	 call 	 blue
00005666 	 A0000003 	 00000198 	  pop 	 [408]
00005667 	 A0000003 	 00000199 	  pop 	 [409]
00005668 	 A0000003 	 0000019A 	  pop 	 [410]
00005669 	 00000013 	 00002D10 	 call 	 blue
00005670 	 A0000003 	 000001A7 	  pop 	 [423]
00005671 	 A0000003 	 000001A8 	  pop 	 [424]
00005672 	 A0000003 	 000001A9 	  pop 	 [425]
00005673 	 00000013 	 00002D10 	 call 	 blue
00005674 	 A0000003 	 000001F8 	  pop 	 [504]
00005675 	 A0000003 	 000001F9 	  pop 	 [505]
00005676 	 A0000003 	 000001FA 	  pop 	 [506]
00005677 	 00000013 	 00002D10 	 call 	 blue
00005678 	 A0000003 	 00000207 	  pop 	 [519]
00005679 	 A0000003 	 00000208 	  pop 	 [520]
00005680 	 A0000003 	 00000209 	  pop 	 [521]
00005681 	 00000013 	 00002D10 	 call 	 blue
00005682 	 A0000003 	 00000258 	  pop 	 [600]
00005683 	 A0000003 	 00000259 	  pop 	 [601]
00005684 	 A0000003 	 0000025A 	  pop 	 [602]
00005685 	 00000013 	 00002D10 	 call 	 blue
00005686 	 A0000003 	 00000267 	  pop 	 [615]
00005687 	 A0000003 	 00000268 	  pop 	 [616]
00005688 	 A0000003 	 00000269 	  pop 	 [617]
00005689 	 00000013 	 00002D10 	 call 	 blue
00005690 	 A0000003 	 000002B8 	  pop 	 [696]
00005691 	 A0000003 	 000002B9 	  pop 	 [697]
00005692 	 A0000003 	 000002BA 	  pop 	 [698]
00005693 	 00000013 	 00002D10 	 call 	 blue
00005694 	 A0000003 	 000002BB 	  pop 	 [699]
00005695 	 A0000003 	 000002BC 	  pop 	 [700]
00005696 	 A0000003 	 000002BD 	  pop 	 [701]
00005697 	 00000013 	 00002D10 	 call 	 blue
00005698 	 A0000003 	 000002BE 	  pop 	 [702]
00005699 	 A0000003 	 000002BF 	  pop 	 [703]
00005700 	 A0000003 	 000002C0 	  pop 	 [704]
00005701 	 00000013 	 00002D10 	 call 	 blue
00005702 	 A0000003 	 000002C1 	  pop 	 [705]
00005703 	 A0000003 	 000002C2 	  pop 	 [706]
00005704 	 A0000003 	 000002C3 	  pop 	 [707]
00005705 	 00000013 	 00002D10 	 call 	 blue
00005706 	 A0000003 	 000002C4 	  pop 	 [708]
00005707 	 A0000003 	 000002C5 	  pop 	 [709]
00005708 	 A0000003 	 000002C6 	  pop 	 [710]
00005709 	 00000013 	 00002D10 	 call 	 blue
00005710 	 A0000003 	 00000318 	  pop 	 [792]
00005711 	 A0000003 	 00000319 	  pop 	 [793]
00005712 	 A0000003 	 0000031A 	  pop 	 [794]
00005713 	 00000013 	 00002D10 	 call 	 blue
00005714 	 A0000003 	 00000378 	  pop 	 [888]
00005715 	 A0000003 	 00000379 	  pop 	 [889]
00005716 	 A0000003 	 0000037A 	  pop 	 [890]
00005717 	 00000013 	 00002D10 	 call 	 blue
00005718 	 A0000003 	 000003D8 	  pop 	 [984]
00005719 	 A0000003 	 000003D9 	  pop 	 [985]
00005720 	 A0000003 	 000003DA 	  pop 	 [986]
00005721 	 00000013 	 00002D10 	 call 	 blue
00005722 	 A0000003 	 00000438 	  pop 	 [1080]
00005723 	 A0000003 	 00000439 	  pop 	 [1081]
00005724 	 A0000003 	 0000043A 	  pop 	 [1082]
00005725 	 00000013 	 00002D10 	 call 	 blue
00005726 	 A0000003 	 00000498 	  pop 	 [1176]
00005727 	 A0000003 	 00000499 	  pop 	 [1177]
00005728 	 A0000003 	 0000049A 	  pop 	 [1178]
00005729 	 00000013 	 00002D10 	 call 	 blue
00005730 	 A0000003 	 000004F8 	  pop 	 [1272]
00005731 	 A0000003 	 000004F9 	  pop 	 [1273]
00005732 	 A0000003 	 000004FA 	  pop 	 [1274]
00005733 	 00000013 	 00002D10 	 call 	 blue
00005734 	 A0000003 	 00000558 	  pop 	 [1368]
00005735 	 A0000003 	 00000559 	  pop 	 [1369]
00005736 	 A0000003 	 0000055A 	  pop 	 [1370]
00005737 	 00000013 	 00002D10 	 call 	 blue
00005738 	 A0000003 	 000005B8 	  pop 	 [1464]
00005739 	 A0000003 	 000005B9 	  pop 	 [1465]
00005740 	 A0000003 	 000005BA 	  pop 	 [1466]
00005741 	 00000016 	          	 scan
00005742 	 00000017 	          	 draw
00005743 	 0000000C 	 00000001 	  jmp 	 up
00005744 	 00000000 	          	  hlt
00005747 	 80000001 	 00000000 	 push 	 0
00005748 	 80000001 	 00000000 	 push 	 0
00005749 	 80000001 	 000000FF 	 push 	 255
00005750 	 00000014 	          	  ret
00005753 	 80000001 	 0000001E 	 push 	 30
00005754 	 80000001 	 00000000 	 push 	 0
00005755 	 80000001 	 000000E6 	 push 	 230
00005756 	 00000014 	          	  ret
00005759 	 80000001 	 00000028 	 push 	 40
00005760 	 80000001 	 00000000 	 push 	 0
00005761 	 80000001 	 000000C8 	 push 	 200
00005762 	 00000014 	          	  ret
00005765 	 80000001 	 0000003C 	 push 	 60
00005766 	 80000001 	 00000000 	 push 	 0
00005767 	 80000001 	 000000AA 	 push 	 170
00005768 	 00000014 	          	  ret
00005771 	 80000001 	 00000050 	 push 	 80
00005772 	 80000001 	 00000000 	 push 	 0
00005773 	 80000001 	 00000096 	 push 	 150
00005774 	 00000014 	          	  ret
00005777 	 80000001 	 00000064 	 push 	 100
00005778 	 80000001 	 00000000 	 push 	 0
00005779 	 80000001 	 00000078 	 push 	 120
00005780 	 00000014 	          	  ret
00005783 	 80000001 	 00000082 	 push 	 130
00005784 	 80000001 	 00000000 	 push 	 0
00005785 	 80000001 	 0000005A 	 push 	 90
00005786 	 00000014 	          	  ret
00005789 	 80000001 	 00000096 	 push 	 150
00005790 	 80000001 	 00000000 	 push 	 0
00005791 	 80000001 	 00000041 	 push 	 65
00005792 	 00000014 	          	  ret
00005795 	 80000001 	 000000C8 	 push 	 200
00005796 	 80000001 	 00000000 	 push 	 0
00005797 	 80000001 	 0000002D 	 push 	 45
00005798 	 00000014 	          	  ret
00005801 	 80000001 	 000000E6 	 push 	 230
00005802 	 80000001 	 00000000 	 push 	 0
00005803 	 80000001 	 00000014 	 push 	 20
00005804 	 00000014 	          	  ret
00005807 	 80000001 	 000000FF 	 push 	 255
00005808 	 80000001 	 00000000 	 push 	 0
00005809 	 80000001 	 00000000 	 push 	 0
00005810 	 00000014 	          	  ret
00005813 	 80000001 	 00000032 	 push 	 50
00005814 	 80000001 	 00000032 	 push 	 50
00005815 	 80000001 	 00000032 	 push 	 50
00005816 	 00000014 	          	  ret
00005819 	 80000001 	 00000096 	 push 	 150
00005820 	 80000001 	 00000096 	 push 	 150
00005821 	 80000001 	 00000096 	 push 	 150
00005822 	 00000014 	          	  ret
